Archive member included to satisfy reference by file (symbol)

/home/maxime/Bureau/IMERIR-2019/gcc-arm-none-eabi-9-2019-q4-major/bin/../lib/gcc/arm-none-eabi/9.2.1/../../../../arm-none-eabi/lib/thumb/v7e-m+fp/hard/libc_nano.a(lib_a-exit.o)
                              /home/maxime/Bureau/IMERIR-2019/gcc-arm-none-eabi-9-2019-q4-major/bin/../lib/gcc/arm-none-eabi/9.2.1/../../../../arm-none-eabi/lib/thumb/v7e-m+fp/hard/crt0.o (exit)
/home/maxime/Bureau/IMERIR-2019/gcc-arm-none-eabi-9-2019-q4-major/bin/../lib/gcc/arm-none-eabi/9.2.1/../../../../arm-none-eabi/lib/thumb/v7e-m+fp/hard/libc_nano.a(lib_a-impure.o)
                              /home/maxime/Bureau/IMERIR-2019/gcc-arm-none-eabi-9-2019-q4-major/bin/../lib/gcc/arm-none-eabi/9.2.1/../../../../arm-none-eabi/lib/thumb/v7e-m+fp/hard/libc_nano.a(lib_a-exit.o) (_global_impure_ptr)
/home/maxime/Bureau/IMERIR-2019/gcc-arm-none-eabi-9-2019-q4-major/bin/../lib/gcc/arm-none-eabi/9.2.1/../../../../arm-none-eabi/lib/thumb/v7e-m+fp/hard/libc_nano.a(lib_a-init.o)
                              /home/maxime/Bureau/IMERIR-2019/gcc-arm-none-eabi-9-2019-q4-major/bin/../lib/gcc/arm-none-eabi/9.2.1/../../../../arm-none-eabi/lib/thumb/v7e-m+fp/hard/crt0.o (__libc_init_array)
/home/maxime/Bureau/IMERIR-2019/gcc-arm-none-eabi-9-2019-q4-major/bin/../lib/gcc/arm-none-eabi/9.2.1/../../../../arm-none-eabi/lib/thumb/v7e-m+fp/hard/libc_nano.a(lib_a-memset.o)
                              /home/maxime/Bureau/IMERIR-2019/gcc-arm-none-eabi-9-2019-q4-major/bin/../lib/gcc/arm-none-eabi/9.2.1/../../../../arm-none-eabi/lib/thumb/v7e-m+fp/hard/crt0.o (memset)
/home/maxime/Bureau/IMERIR-2019/gcc-arm-none-eabi-9-2019-q4-major/bin/../lib/gcc/arm-none-eabi/9.2.1/thumb/v7e-m+fp/hard/libgcc.a(_arm_addsubdf3.o)
                              ./build/read_data_simple.o (__aeabi_f2d)
/home/maxime/Bureau/IMERIR-2019/gcc-arm-none-eabi-9-2019-q4-major/bin/../lib/gcc/arm-none-eabi/9.2.1/thumb/v7e-m+fp/hard/libgcc.a(_aeabi_ldivmod.o)
                              ./build/stm32l4xx_hal_uart.o (__aeabi_ldivmod)
/home/maxime/Bureau/IMERIR-2019/gcc-arm-none-eabi-9-2019-q4-major/bin/../lib/gcc/arm-none-eabi/9.2.1/thumb/v7e-m+fp/hard/libgcc.a(_aeabi_uldivmod.o)
                              ./build/stm32l4xx_hal_uart.o (__aeabi_uldivmod)
/home/maxime/Bureau/IMERIR-2019/gcc-arm-none-eabi-9-2019-q4-major/bin/../lib/gcc/arm-none-eabi/9.2.1/thumb/v7e-m+fp/hard/libgcc.a(_udivmoddi4.o)
                              /home/maxime/Bureau/IMERIR-2019/gcc-arm-none-eabi-9-2019-q4-major/bin/../lib/gcc/arm-none-eabi/9.2.1/thumb/v7e-m+fp/hard/libgcc.a(_aeabi_ldivmod.o) (__udivmoddi4)
/home/maxime/Bureau/IMERIR-2019/gcc-arm-none-eabi-9-2019-q4-major/bin/../lib/gcc/arm-none-eabi/9.2.1/thumb/v7e-m+fp/hard/libgcc.a(_dvmd_tls.o)
                              /home/maxime/Bureau/IMERIR-2019/gcc-arm-none-eabi-9-2019-q4-major/bin/../lib/gcc/arm-none-eabi/9.2.1/thumb/v7e-m+fp/hard/libgcc.a(_aeabi_ldivmod.o) (__aeabi_ldiv0)
/home/maxime/Bureau/IMERIR-2019/gcc-arm-none-eabi-9-2019-q4-major/bin/../lib/gcc/arm-none-eabi/9.2.1/../../../../arm-none-eabi/lib/thumb/v7e-m+fp/hard/libc_nano.a(lib_a-sprintf.o)
                              ./build/read_data_simple.o (sprintf)
/home/maxime/Bureau/IMERIR-2019/gcc-arm-none-eabi-9-2019-q4-major/bin/../lib/gcc/arm-none-eabi/9.2.1/../../../../arm-none-eabi/lib/thumb/v7e-m+fp/hard/libc_nano.a(lib_a-strlen.o)
                              ./build/read_data_simple.o (strlen)
/home/maxime/Bureau/IMERIR-2019/gcc-arm-none-eabi-9-2019-q4-major/bin/../lib/gcc/arm-none-eabi/9.2.1/../../../../arm-none-eabi/lib/thumb/v7e-m+fp/hard/libc_nano.a(lib_a-nano-svfprintf.o)
                              /home/maxime/Bureau/IMERIR-2019/gcc-arm-none-eabi-9-2019-q4-major/bin/../lib/gcc/arm-none-eabi/9.2.1/../../../../arm-none-eabi/lib/thumb/v7e-m+fp/hard/libc_nano.a(lib_a-sprintf.o) (_svfprintf_r)
/home/maxime/Bureau/IMERIR-2019/gcc-arm-none-eabi-9-2019-q4-major/bin/../lib/gcc/arm-none-eabi/9.2.1/../../../../arm-none-eabi/lib/thumb/v7e-m+fp/hard/libc_nano.a(lib_a-nano-vfprintf_i.o)
                              /home/maxime/Bureau/IMERIR-2019/gcc-arm-none-eabi-9-2019-q4-major/bin/../lib/gcc/arm-none-eabi/9.2.1/../../../../arm-none-eabi/lib/thumb/v7e-m+fp/hard/libc_nano.a(lib_a-nano-svfprintf.o) (_printf_i)
/home/maxime/Bureau/IMERIR-2019/gcc-arm-none-eabi-9-2019-q4-major/bin/../lib/gcc/arm-none-eabi/9.2.1/../../../../arm-none-eabi/lib/thumb/v7e-m+fp/hard/libc_nano.a(lib_a-memchr.o)
                              /home/maxime/Bureau/IMERIR-2019/gcc-arm-none-eabi-9-2019-q4-major/bin/../lib/gcc/arm-none-eabi/9.2.1/../../../../arm-none-eabi/lib/thumb/v7e-m+fp/hard/libc_nano.a(lib_a-nano-svfprintf.o) (memchr)
/home/maxime/Bureau/IMERIR-2019/gcc-arm-none-eabi-9-2019-q4-major/bin/../lib/gcc/arm-none-eabi/9.2.1/../../../../arm-none-eabi/lib/thumb/v7e-m+fp/hard/libc_nano.a(lib_a-memcpy-stub.o)
                              /home/maxime/Bureau/IMERIR-2019/gcc-arm-none-eabi-9-2019-q4-major/bin/../lib/gcc/arm-none-eabi/9.2.1/../../../../arm-none-eabi/lib/thumb/v7e-m+fp/hard/libc_nano.a(lib_a-nano-svfprintf.o) (memcpy)
/home/maxime/Bureau/IMERIR-2019/gcc-arm-none-eabi-9-2019-q4-major/bin/../lib/gcc/arm-none-eabi/9.2.1/../../../../arm-none-eabi/lib/thumb/v7e-m+fp/hard/libc_nano.a(lib_a-memmove.o)
                              /home/maxime/Bureau/IMERIR-2019/gcc-arm-none-eabi-9-2019-q4-major/bin/../lib/gcc/arm-none-eabi/9.2.1/../../../../arm-none-eabi/lib/thumb/v7e-m+fp/hard/libc_nano.a(lib_a-nano-svfprintf.o) (memmove)
/home/maxime/Bureau/IMERIR-2019/gcc-arm-none-eabi-9-2019-q4-major/bin/../lib/gcc/arm-none-eabi/9.2.1/../../../../arm-none-eabi/lib/thumb/v7e-m+fp/hard/libc_nano.a(lib_a-nano-freer.o)
                              /home/maxime/Bureau/IMERIR-2019/gcc-arm-none-eabi-9-2019-q4-major/bin/../lib/gcc/arm-none-eabi/9.2.1/../../../../arm-none-eabi/lib/thumb/v7e-m+fp/hard/libc_nano.a(lib_a-nano-svfprintf.o) (_free_r)
/home/maxime/Bureau/IMERIR-2019/gcc-arm-none-eabi-9-2019-q4-major/bin/../lib/gcc/arm-none-eabi/9.2.1/../../../../arm-none-eabi/lib/thumb/v7e-m+fp/hard/libc_nano.a(lib_a-nano-mallocr.o)
                              /home/maxime/Bureau/IMERIR-2019/gcc-arm-none-eabi-9-2019-q4-major/bin/../lib/gcc/arm-none-eabi/9.2.1/../../../../arm-none-eabi/lib/thumb/v7e-m+fp/hard/libc_nano.a(lib_a-nano-svfprintf.o) (_malloc_r)
/home/maxime/Bureau/IMERIR-2019/gcc-arm-none-eabi-9-2019-q4-major/bin/../lib/gcc/arm-none-eabi/9.2.1/../../../../arm-none-eabi/lib/thumb/v7e-m+fp/hard/libc_nano.a(lib_a-nano-reallocr.o)
                              /home/maxime/Bureau/IMERIR-2019/gcc-arm-none-eabi-9-2019-q4-major/bin/../lib/gcc/arm-none-eabi/9.2.1/../../../../arm-none-eabi/lib/thumb/v7e-m+fp/hard/libc_nano.a(lib_a-nano-svfprintf.o) (_realloc_r)
/home/maxime/Bureau/IMERIR-2019/gcc-arm-none-eabi-9-2019-q4-major/bin/../lib/gcc/arm-none-eabi/9.2.1/../../../../arm-none-eabi/lib/thumb/v7e-m+fp/hard/libc_nano.a(lib_a-sbrkr.o)
                              /home/maxime/Bureau/IMERIR-2019/gcc-arm-none-eabi-9-2019-q4-major/bin/../lib/gcc/arm-none-eabi/9.2.1/../../../../arm-none-eabi/lib/thumb/v7e-m+fp/hard/libc_nano.a(lib_a-nano-mallocr.o) (_sbrk_r)
/home/maxime/Bureau/IMERIR-2019/gcc-arm-none-eabi-9-2019-q4-major/bin/../lib/gcc/arm-none-eabi/9.2.1/../../../../arm-none-eabi/lib/thumb/v7e-m+fp/hard/libc_nano.a(lib_a-mlock.o)
                              /home/maxime/Bureau/IMERIR-2019/gcc-arm-none-eabi-9-2019-q4-major/bin/../lib/gcc/arm-none-eabi/9.2.1/../../../../arm-none-eabi/lib/thumb/v7e-m+fp/hard/libc_nano.a(lib_a-nano-freer.o) (__malloc_lock)
/home/maxime/Bureau/IMERIR-2019/gcc-arm-none-eabi-9-2019-q4-major/bin/../lib/gcc/arm-none-eabi/9.2.1/../../../../arm-none-eabi/lib/thumb/v7e-m+fp/hard/libc_nano.a(lib_a-nano-msizer.o)
                              /home/maxime/Bureau/IMERIR-2019/gcc-arm-none-eabi-9-2019-q4-major/bin/../lib/gcc/arm-none-eabi/9.2.1/../../../../arm-none-eabi/lib/thumb/v7e-m+fp/hard/libc_nano.a(lib_a-nano-reallocr.o) (_malloc_usable_size_r)
/home/maxime/Bureau/IMERIR-2019/gcc-arm-none-eabi-9-2019-q4-major/bin/../lib/gcc/arm-none-eabi/9.2.1/../../../../arm-none-eabi/lib/thumb/v7e-m+fp/hard/libc_nano.a(lib_a-reent.o)
                              /home/maxime/Bureau/IMERIR-2019/gcc-arm-none-eabi-9-2019-q4-major/bin/../lib/gcc/arm-none-eabi/9.2.1/../../../../arm-none-eabi/lib/thumb/v7e-m+fp/hard/libc_nano.a(lib_a-sbrkr.o) (errno)
/home/maxime/Bureau/IMERIR-2019/gcc-arm-none-eabi-9-2019-q4-major/bin/../lib/gcc/arm-none-eabi/9.2.1/../../../../arm-none-eabi/lib/thumb/v7e-m+fp/hard/libc_nano.a(lib_a-lock.o)
                              /home/maxime/Bureau/IMERIR-2019/gcc-arm-none-eabi-9-2019-q4-major/bin/../lib/gcc/arm-none-eabi/9.2.1/../../../../arm-none-eabi/lib/thumb/v7e-m+fp/hard/libc_nano.a(lib_a-mlock.o) (__retarget_lock_acquire_recursive)
/home/maxime/Bureau/IMERIR-2019/gcc-arm-none-eabi-9-2019-q4-major/bin/../lib/gcc/arm-none-eabi/9.2.1/../../../../arm-none-eabi/lib/thumb/v7e-m+fp/hard/libnosys.a(sbrk.o)
                              /home/maxime/Bureau/IMERIR-2019/gcc-arm-none-eabi-9-2019-q4-major/bin/../lib/gcc/arm-none-eabi/9.2.1/../../../../arm-none-eabi/lib/thumb/v7e-m+fp/hard/libc_nano.a(lib_a-sbrkr.o) (_sbrk)
/home/maxime/Bureau/IMERIR-2019/gcc-arm-none-eabi-9-2019-q4-major/bin/../lib/gcc/arm-none-eabi/9.2.1/../../../../arm-none-eabi/lib/thumb/v7e-m+fp/hard/libnosys.a(_exit.o)
                              /home/maxime/Bureau/IMERIR-2019/gcc-arm-none-eabi-9-2019-q4-major/bin/../lib/gcc/arm-none-eabi/9.2.1/../../../../arm-none-eabi/lib/thumb/v7e-m+fp/hard/libc_nano.a(lib_a-exit.o) (_exit)

Allocating common symbols
Common symbol       size              file

__lock___atexit_recursive_mutex
                    0x1               /home/maxime/Bureau/IMERIR-2019/gcc-arm-none-eabi-9-2019-q4-major/bin/../lib/gcc/arm-none-eabi/9.2.1/../../../../arm-none-eabi/lib/thumb/v7e-m+fp/hard/libc_nano.a(lib_a-lock.o)
__lock___arc4random_mutex
                    0x1               /home/maxime/Bureau/IMERIR-2019/gcc-arm-none-eabi-9-2019-q4-major/bin/../lib/gcc/arm-none-eabi/9.2.1/../../../../arm-none-eabi/lib/thumb/v7e-m+fp/hard/libc_nano.a(lib_a-lock.o)
errno               0x4               /home/maxime/Bureau/IMERIR-2019/gcc-arm-none-eabi-9-2019-q4-major/bin/../lib/gcc/arm-none-eabi/9.2.1/../../../../arm-none-eabi/lib/thumb/v7e-m+fp/hard/libc_nano.a(lib_a-reent.o)
hi2c1               0x4c              ./build/main.o
uwTick              0x4               ./build/stm32l4xx_hal.o
__lock___env_recursive_mutex
                    0x1               /home/maxime/Bureau/IMERIR-2019/gcc-arm-none-eabi-9-2019-q4-major/bin/../lib/gcc/arm-none-eabi/9.2.1/../../../../arm-none-eabi/lib/thumb/v7e-m+fp/hard/libc_nano.a(lib_a-lock.o)
__lock___sinit_recursive_mutex
                    0x1               /home/maxime/Bureau/IMERIR-2019/gcc-arm-none-eabi-9-2019-q4-major/bin/../lib/gcc/arm-none-eabi/9.2.1/../../../../arm-none-eabi/lib/thumb/v7e-m+fp/hard/libc_nano.a(lib_a-lock.o)
__lock___malloc_recursive_mutex
                    0x1               /home/maxime/Bureau/IMERIR-2019/gcc-arm-none-eabi-9-2019-q4-major/bin/../lib/gcc/arm-none-eabi/9.2.1/../../../../arm-none-eabi/lib/thumb/v7e-m+fp/hard/libc_nano.a(lib_a-lock.o)
huart2              0x80              ./build/main.o
__lock___at_quick_exit_mutex
                    0x1               /home/maxime/Bureau/IMERIR-2019/gcc-arm-none-eabi-9-2019-q4-major/bin/../lib/gcc/arm-none-eabi/9.2.1/../../../../arm-none-eabi/lib/thumb/v7e-m+fp/hard/libc_nano.a(lib_a-lock.o)
__lock___dd_hash_mutex
                    0x1               /home/maxime/Bureau/IMERIR-2019/gcc-arm-none-eabi-9-2019-q4-major/bin/../lib/gcc/arm-none-eabi/9.2.1/../../../../arm-none-eabi/lib/thumb/v7e-m+fp/hard/libc_nano.a(lib_a-lock.o)
__lock___tz_mutex   0x1               /home/maxime/Bureau/IMERIR-2019/gcc-arm-none-eabi-9-2019-q4-major/bin/../lib/gcc/arm-none-eabi/9.2.1/../../../../arm-none-eabi/lib/thumb/v7e-m+fp/hard/libc_nano.a(lib_a-lock.o)
__lock___sfp_recursive_mutex
                    0x1               /home/maxime/Bureau/IMERIR-2019/gcc-arm-none-eabi-9-2019-q4-major/bin/../lib/gcc/arm-none-eabi/9.2.1/../../../../arm-none-eabi/lib/thumb/v7e-m+fp/hard/libc_nano.a(lib_a-lock.o)

Memory Configuration

Name             Origin             Length             Attributes
FLASH            0x0000000008000000 0x0000000000100000 xr
RAM              0x0000000020000000 0x0000000000018000 xrw
*default*        0x0000000000000000 0xffffffffffffffff

Linker script and memory map

LOAD /home/maxime/Bureau/IMERIR-2019/gcc-arm-none-eabi-9-2019-q4-major/bin/../lib/gcc/arm-none-eabi/9.2.1/thumb/v7e-m+fp/hard/crti.o
LOAD /home/maxime/Bureau/IMERIR-2019/gcc-arm-none-eabi-9-2019-q4-major/bin/../lib/gcc/arm-none-eabi/9.2.1/thumb/v7e-m+fp/hard/crtbegin.o
LOAD /home/maxime/Bureau/IMERIR-2019/gcc-arm-none-eabi-9-2019-q4-major/bin/../lib/gcc/arm-none-eabi/9.2.1/../../../../arm-none-eabi/lib/thumb/v7e-m+fp/hard/crt0.o
START GROUP
LOAD /home/maxime/Bureau/IMERIR-2019/gcc-arm-none-eabi-9-2019-q4-major/bin/../lib/gcc/arm-none-eabi/9.2.1/../../../../arm-none-eabi/lib/thumb/v7e-m+fp/hard/libc_nano.a
LOAD /home/maxime/Bureau/IMERIR-2019/gcc-arm-none-eabi-9-2019-q4-major/bin/../lib/gcc/arm-none-eabi/9.2.1/../../../../arm-none-eabi/lib/thumb/v7e-m+fp/hard/libm.a
END GROUP
LOAD ./build/main.o
LOAD ./build/read_data_simple.o
LOAD ./build/stm32l4xx_nucleo.o
LOAD ./build/lsm6dso_reg.o
LOAD ./build/stm32l4xx_hal_i2c_ex.o
LOAD ./build/stm32l4xx_hal.o
LOAD ./build/stm32l4xx_hal_cortex.o
LOAD ./build/stm32l4xx_hal_rcc.o
LOAD ./build/stm32l4xx_hal_pwr_ex.o
LOAD ./build/stm32l4xx_hal_gpio.o
LOAD ./build/stm32l4xx_hal_pwr.o
LOAD ./build/stm32l4xx_hal_uart.o
LOAD ./build/stm32l4xx_hal_dma.o
LOAD ./build/stm32l4xx_hal_uart_ex.o
LOAD ./build/stm32l4xx_hal_wwdg.o
LOAD ./build/stm32l4xx_hal_i2c.o
LOAD ./build/system_stm32l4xx.o
LOAD build/stm32l476_startup.o
START GROUP
LOAD /home/maxime/Bureau/IMERIR-2019/gcc-arm-none-eabi-9-2019-q4-major/bin/../lib/gcc/arm-none-eabi/9.2.1/thumb/v7e-m+fp/hard/libgcc.a
LOAD /home/maxime/Bureau/IMERIR-2019/gcc-arm-none-eabi-9-2019-q4-major/bin/../lib/gcc/arm-none-eabi/9.2.1/../../../../arm-none-eabi/lib/thumb/v7e-m+fp/hard/libc_nano.a
END GROUP
START GROUP
LOAD /home/maxime/Bureau/IMERIR-2019/gcc-arm-none-eabi-9-2019-q4-major/bin/../lib/gcc/arm-none-eabi/9.2.1/thumb/v7e-m+fp/hard/libgcc.a
LOAD /home/maxime/Bureau/IMERIR-2019/gcc-arm-none-eabi-9-2019-q4-major/bin/../lib/gcc/arm-none-eabi/9.2.1/../../../../arm-none-eabi/lib/thumb/v7e-m+fp/hard/libc_nano.a
LOAD /home/maxime/Bureau/IMERIR-2019/gcc-arm-none-eabi-9-2019-q4-major/bin/../lib/gcc/arm-none-eabi/9.2.1/../../../../arm-none-eabi/lib/thumb/v7e-m+fp/hard/libnosys.a
END GROUP
START GROUP
LOAD /home/maxime/Bureau/IMERIR-2019/gcc-arm-none-eabi-9-2019-q4-major/bin/../lib/gcc/arm-none-eabi/9.2.1/thumb/v7e-m+fp/hard/libgcc.a
LOAD /home/maxime/Bureau/IMERIR-2019/gcc-arm-none-eabi-9-2019-q4-major/bin/../lib/gcc/arm-none-eabi/9.2.1/../../../../arm-none-eabi/lib/thumb/v7e-m+fp/hard/libc_nano.a
LOAD /home/maxime/Bureau/IMERIR-2019/gcc-arm-none-eabi-9-2019-q4-major/bin/../lib/gcc/arm-none-eabi/9.2.1/../../../../arm-none-eabi/lib/thumb/v7e-m+fp/hard/libnosys.a
END GROUP
LOAD /home/maxime/Bureau/IMERIR-2019/gcc-arm-none-eabi-9-2019-q4-major/bin/../lib/gcc/arm-none-eabi/9.2.1/thumb/v7e-m+fp/hard/crtend.o
LOAD /home/maxime/Bureau/IMERIR-2019/gcc-arm-none-eabi-9-2019-q4-major/bin/../lib/gcc/arm-none-eabi/9.2.1/thumb/v7e-m+fp/hard/crtn.o
                0x0000000020018000                _estack = 0x20018000
                0x0000000000000200                _Min_Heap_Size = 0x200
                0x0000000000000400                _Min_Stack_Size = 0x400

.isr_vector     0x0000000008000000      0x188
                0x0000000008000000                . = ALIGN (0x8)
 *(.isr_vector)
 .isr_vector    0x0000000008000000      0x188 build/stm32l476_startup.o
                0x0000000008000000                g_pfnVectors
                0x0000000008000188                . = ALIGN (0x8)

.text           0x0000000008000190     0xbf30
                0x0000000008000190                . = ALIGN (0x8)
 *(.text)
 .text          0x0000000008000190        0x0 /home/maxime/Bureau/IMERIR-2019/gcc-arm-none-eabi-9-2019-q4-major/bin/../lib/gcc/arm-none-eabi/9.2.1/thumb/v7e-m+fp/hard/crti.o
 .text          0x0000000008000190       0x40 /home/maxime/Bureau/IMERIR-2019/gcc-arm-none-eabi-9-2019-q4-major/bin/../lib/gcc/arm-none-eabi/9.2.1/thumb/v7e-m+fp/hard/crtbegin.o
 .text          0x00000000080001d0       0x74 /home/maxime/Bureau/IMERIR-2019/gcc-arm-none-eabi-9-2019-q4-major/bin/../lib/gcc/arm-none-eabi/9.2.1/../../../../arm-none-eabi/lib/thumb/v7e-m+fp/hard/crt0.o
                0x00000000080001d0                _mainCRTStartup
                0x00000000080001d0                _start
 .text          0x0000000008000244        0x0 /home/maxime/Bureau/IMERIR-2019/gcc-arm-none-eabi-9-2019-q4-major/bin/../lib/gcc/arm-none-eabi/9.2.1/../../../../arm-none-eabi/lib/thumb/v7e-m+fp/hard/libc_nano.a(lib_a-exit.o)
 .text          0x0000000008000244        0x0 /home/maxime/Bureau/IMERIR-2019/gcc-arm-none-eabi-9-2019-q4-major/bin/../lib/gcc/arm-none-eabi/9.2.1/../../../../arm-none-eabi/lib/thumb/v7e-m+fp/hard/libc_nano.a(lib_a-impure.o)
 .text          0x0000000008000244        0x0 /home/maxime/Bureau/IMERIR-2019/gcc-arm-none-eabi-9-2019-q4-major/bin/../lib/gcc/arm-none-eabi/9.2.1/../../../../arm-none-eabi/lib/thumb/v7e-m+fp/hard/libc_nano.a(lib_a-init.o)
 .text          0x0000000008000244        0x0 /home/maxime/Bureau/IMERIR-2019/gcc-arm-none-eabi-9-2019-q4-major/bin/../lib/gcc/arm-none-eabi/9.2.1/../../../../arm-none-eabi/lib/thumb/v7e-m+fp/hard/libc_nano.a(lib_a-memset.o)
 .text          0x0000000008000244        0x0 ./build/main.o
 .text          0x0000000008000244        0x0 ./build/read_data_simple.o
 .text          0x0000000008000244        0x0 ./build/stm32l4xx_nucleo.o
 .text          0x0000000008000244        0x0 ./build/lsm6dso_reg.o
 .text          0x0000000008000244        0x0 ./build/stm32l4xx_hal_i2c_ex.o
 .text          0x0000000008000244        0x0 ./build/stm32l4xx_hal.o
 .text          0x0000000008000244        0x0 ./build/stm32l4xx_hal_cortex.o
 .text          0x0000000008000244        0x0 ./build/stm32l4xx_hal_rcc.o
 .text          0x0000000008000244        0x0 ./build/stm32l4xx_hal_pwr_ex.o
 .text          0x0000000008000244        0x0 ./build/stm32l4xx_hal_gpio.o
 .text          0x0000000008000244        0x0 ./build/stm32l4xx_hal_pwr.o
 .text          0x0000000008000244        0x0 ./build/stm32l4xx_hal_uart.o
 .text          0x0000000008000244        0x0 ./build/stm32l4xx_hal_dma.o
 .text          0x0000000008000244        0x0 ./build/stm32l4xx_hal_uart_ex.o
 .text          0x0000000008000244        0x0 ./build/stm32l4xx_hal_wwdg.o
 .text          0x0000000008000244        0x0 ./build/stm32l4xx_hal_i2c.o
 .text          0x0000000008000244        0x0 ./build/system_stm32l4xx.o
 .text          0x0000000008000244       0x14 build/stm32l476_startup.o
 .text          0x0000000008000258      0x378 /home/maxime/Bureau/IMERIR-2019/gcc-arm-none-eabi-9-2019-q4-major/bin/../lib/gcc/arm-none-eabi/9.2.1/thumb/v7e-m+fp/hard/libgcc.a(_arm_addsubdf3.o)
                0x0000000008000258                __aeabi_drsub
                0x0000000008000260                __aeabi_dsub
                0x0000000008000260                __subdf3
                0x0000000008000264                __adddf3
                0x0000000008000264                __aeabi_dadd
                0x00000000080004dc                __aeabi_ui2d
                0x00000000080004dc                __floatunsidf
                0x00000000080004fc                __floatsidf
                0x00000000080004fc                __aeabi_i2d
                0x0000000008000520                __extendsfdf2
                0x0000000008000520                __aeabi_f2d
                0x0000000008000564                __aeabi_ul2d
                0x0000000008000564                __floatundidf
                0x0000000008000574                __floatdidf
                0x0000000008000574                __aeabi_l2d
 .text          0x00000000080005d0       0xa0 /home/maxime/Bureau/IMERIR-2019/gcc-arm-none-eabi-9-2019-q4-major/bin/../lib/gcc/arm-none-eabi/9.2.1/thumb/v7e-m+fp/hard/libgcc.a(_aeabi_ldivmod.o)
                0x00000000080005d0                __aeabi_ldivmod
 .text          0x0000000008000670       0x30 /home/maxime/Bureau/IMERIR-2019/gcc-arm-none-eabi-9-2019-q4-major/bin/../lib/gcc/arm-none-eabi/9.2.1/thumb/v7e-m+fp/hard/libgcc.a(_aeabi_uldivmod.o)
                0x0000000008000670                __aeabi_uldivmod
 .text          0x00000000080006a0      0x2c4 /home/maxime/Bureau/IMERIR-2019/gcc-arm-none-eabi-9-2019-q4-major/bin/../lib/gcc/arm-none-eabi/9.2.1/thumb/v7e-m+fp/hard/libgcc.a(_udivmoddi4.o)
                0x00000000080006a0                __udivmoddi4
 .text          0x0000000008000964        0x4 /home/maxime/Bureau/IMERIR-2019/gcc-arm-none-eabi-9-2019-q4-major/bin/../lib/gcc/arm-none-eabi/9.2.1/thumb/v7e-m+fp/hard/libgcc.a(_dvmd_tls.o)
                0x0000000008000964                __aeabi_ldiv0
                0x0000000008000964                __aeabi_idiv0
 .text          0x0000000008000968        0x0 /home/maxime/Bureau/IMERIR-2019/gcc-arm-none-eabi-9-2019-q4-major/bin/../lib/gcc/arm-none-eabi/9.2.1/../../../../arm-none-eabi/lib/thumb/v7e-m+fp/hard/libc_nano.a(lib_a-sprintf.o)
 .text          0x0000000008000968       0x10 /home/maxime/Bureau/IMERIR-2019/gcc-arm-none-eabi-9-2019-q4-major/bin/../lib/gcc/arm-none-eabi/9.2.1/../../../../arm-none-eabi/lib/thumb/v7e-m+fp/hard/libc_nano.a(lib_a-strlen.o)
                0x0000000008000968                strlen
 .text          0x0000000008000978        0x0 /home/maxime/Bureau/IMERIR-2019/gcc-arm-none-eabi-9-2019-q4-major/bin/../lib/gcc/arm-none-eabi/9.2.1/../../../../arm-none-eabi/lib/thumb/v7e-m+fp/hard/libc_nano.a(lib_a-nano-svfprintf.o)
 .text          0x0000000008000978        0x0 /home/maxime/Bureau/IMERIR-2019/gcc-arm-none-eabi-9-2019-q4-major/bin/../lib/gcc/arm-none-eabi/9.2.1/../../../../arm-none-eabi/lib/thumb/v7e-m+fp/hard/libc_nano.a(lib_a-nano-vfprintf_i.o)
 *fill*         0x0000000008000978        0x8 
 .text          0x0000000008000980       0xa0 /home/maxime/Bureau/IMERIR-2019/gcc-arm-none-eabi-9-2019-q4-major/bin/../lib/gcc/arm-none-eabi/9.2.1/../../../../arm-none-eabi/lib/thumb/v7e-m+fp/hard/libc_nano.a(lib_a-memchr.o)
                0x0000000008000980                memchr
 .text          0x0000000008000a20        0x0 /home/maxime/Bureau/IMERIR-2019/gcc-arm-none-eabi-9-2019-q4-major/bin/../lib/gcc/arm-none-eabi/9.2.1/../../../../arm-none-eabi/lib/thumb/v7e-m+fp/hard/libc_nano.a(lib_a-memcpy-stub.o)
 .text          0x0000000008000a20        0x0 /home/maxime/Bureau/IMERIR-2019/gcc-arm-none-eabi-9-2019-q4-major/bin/../lib/gcc/arm-none-eabi/9.2.1/../../../../arm-none-eabi/lib/thumb/v7e-m+fp/hard/libc_nano.a(lib_a-memmove.o)
 .text          0x0000000008000a20        0x0 /home/maxime/Bureau/IMERIR-2019/gcc-arm-none-eabi-9-2019-q4-major/bin/../lib/gcc/arm-none-eabi/9.2.1/../../../../arm-none-eabi/lib/thumb/v7e-m+fp/hard/libc_nano.a(lib_a-nano-freer.o)
 .text          0x0000000008000a20        0x0 /home/maxime/Bureau/IMERIR-2019/gcc-arm-none-eabi-9-2019-q4-major/bin/../lib/gcc/arm-none-eabi/9.2.1/../../../../arm-none-eabi/lib/thumb/v7e-m+fp/hard/libc_nano.a(lib_a-nano-mallocr.o)
 .text          0x0000000008000a20        0x0 /home/maxime/Bureau/IMERIR-2019/gcc-arm-none-eabi-9-2019-q4-major/bin/../lib/gcc/arm-none-eabi/9.2.1/../../../../arm-none-eabi/lib/thumb/v7e-m+fp/hard/libc_nano.a(lib_a-nano-reallocr.o)
 .text          0x0000000008000a20        0x0 /home/maxime/Bureau/IMERIR-2019/gcc-arm-none-eabi-9-2019-q4-major/bin/../lib/gcc/arm-none-eabi/9.2.1/../../../../arm-none-eabi/lib/thumb/v7e-m+fp/hard/libc_nano.a(lib_a-sbrkr.o)
 .text          0x0000000008000a20        0x0 /home/maxime/Bureau/IMERIR-2019/gcc-arm-none-eabi-9-2019-q4-major/bin/../lib/gcc/arm-none-eabi/9.2.1/../../../../arm-none-eabi/lib/thumb/v7e-m+fp/hard/libc_nano.a(lib_a-mlock.o)
 .text          0x0000000008000a20        0x0 /home/maxime/Bureau/IMERIR-2019/gcc-arm-none-eabi-9-2019-q4-major/bin/../lib/gcc/arm-none-eabi/9.2.1/../../../../arm-none-eabi/lib/thumb/v7e-m+fp/hard/libc_nano.a(lib_a-nano-msizer.o)
 .text          0x0000000008000a20        0x0 /home/maxime/Bureau/IMERIR-2019/gcc-arm-none-eabi-9-2019-q4-major/bin/../lib/gcc/arm-none-eabi/9.2.1/../../../../arm-none-eabi/lib/thumb/v7e-m+fp/hard/libc_nano.a(lib_a-reent.o)
 .text          0x0000000008000a20        0x0 /home/maxime/Bureau/IMERIR-2019/gcc-arm-none-eabi-9-2019-q4-major/bin/../lib/gcc/arm-none-eabi/9.2.1/../../../../arm-none-eabi/lib/thumb/v7e-m+fp/hard/libc_nano.a(lib_a-lock.o)
 .text          0x0000000008000a20        0x0 /home/maxime/Bureau/IMERIR-2019/gcc-arm-none-eabi-9-2019-q4-major/bin/../lib/gcc/arm-none-eabi/9.2.1/../../../../arm-none-eabi/lib/thumb/v7e-m+fp/hard/libnosys.a(sbrk.o)
 .text          0x0000000008000a20        0x0 /home/maxime/Bureau/IMERIR-2019/gcc-arm-none-eabi-9-2019-q4-major/bin/../lib/gcc/arm-none-eabi/9.2.1/../../../../arm-none-eabi/lib/thumb/v7e-m+fp/hard/libnosys.a(_exit.o)
 .text          0x0000000008000a20        0x0 /home/maxime/Bureau/IMERIR-2019/gcc-arm-none-eabi-9-2019-q4-major/bin/../lib/gcc/arm-none-eabi/9.2.1/thumb/v7e-m+fp/hard/crtend.o
 .text          0x0000000008000a20        0x0 /home/maxime/Bureau/IMERIR-2019/gcc-arm-none-eabi-9-2019-q4-major/bin/../lib/gcc/arm-none-eabi/9.2.1/thumb/v7e-m+fp/hard/crtn.o
 *(.text*)
 .text.exit     0x0000000008000a20       0x28 /home/maxime/Bureau/IMERIR-2019/gcc-arm-none-eabi-9-2019-q4-major/bin/../lib/gcc/arm-none-eabi/9.2.1/../../../../arm-none-eabi/lib/thumb/v7e-m+fp/hard/libc_nano.a(lib_a-exit.o)
                0x0000000008000a20                exit
 .text.__libc_init_array
                0x0000000008000a48       0x48 /home/maxime/Bureau/IMERIR-2019/gcc-arm-none-eabi-9-2019-q4-major/bin/../lib/gcc/arm-none-eabi/9.2.1/../../../../arm-none-eabi/lib/thumb/v7e-m+fp/hard/libc_nano.a(lib_a-init.o)
                0x0000000008000a48                __libc_init_array
 .text.memset   0x0000000008000a90       0x10 /home/maxime/Bureau/IMERIR-2019/gcc-arm-none-eabi-9-2019-q4-major/bin/../lib/gcc/arm-none-eabi/9.2.1/../../../../arm-none-eabi/lib/thumb/v7e-m+fp/hard/libc_nano.a(lib_a-memset.o)
                0x0000000008000a90                memset
 .text.SystemClock_Config
                0x0000000008000aa0       0x62 ./build/main.o
                0x0000000008000aa0                SystemClock_Config
 *fill*         0x0000000008000b02        0x2 
 .text.startup.main
                0x0000000008000b04       0xc4 ./build/main.o
                0x0000000008000b04                main
 .text.platform_read
                0x0000000008000bc8       0x28 ./build/read_data_simple.o
 .text.platform_write
                0x0000000008000bf0       0x28 ./build/read_data_simple.o
 .text.example_main_lsm6dso
                0x0000000008000c18      0x22c ./build/read_data_simple.o
                0x0000000008000c18                example_main_lsm6dso
 .text.BSP_GetVersion
                0x0000000008000e44        0x8 ./build/stm32l4xx_nucleo.o
                0x0000000008000e44                BSP_GetVersion
 .text.BSP_LED_Init
                0x0000000008000e4c       0x50 ./build/stm32l4xx_nucleo.o
                0x0000000008000e4c                BSP_LED_Init
 .text.BSP_LED_DeInit
                0x0000000008000e9c       0x24 ./build/stm32l4xx_nucleo.o
                0x0000000008000e9c                BSP_LED_DeInit
 .text.BSP_LED_On
                0x0000000008000ec0       0x14 ./build/stm32l4xx_nucleo.o
                0x0000000008000ec0                BSP_LED_On
 .text.BSP_LED_Off
                0x0000000008000ed4       0x14 ./build/stm32l4xx_nucleo.o
                0x0000000008000ed4                BSP_LED_Off
 .text.BSP_LED_Toggle
                0x0000000008000ee8       0x10 ./build/stm32l4xx_nucleo.o
                0x0000000008000ee8                BSP_LED_Toggle
 .text.BSP_PB_Init
                0x0000000008000ef8       0x88 ./build/stm32l4xx_nucleo.o
                0x0000000008000ef8                BSP_PB_Init
 .text.BSP_PB_DeInit
                0x0000000008000f80       0x20 ./build/stm32l4xx_nucleo.o
                0x0000000008000f80                BSP_PB_DeInit
 .text.BSP_PB_GetState
                0x0000000008000fa0       0x18 ./build/stm32l4xx_nucleo.o
                0x0000000008000fa0                BSP_PB_GetState
 .text.lsm6dso_read_reg
                0x0000000008000fb8        0xe ./build/lsm6dso_reg.o
                0x0000000008000fb8                lsm6dso_read_reg
 .text.lsm6dso_write_reg
                0x0000000008000fc6        0xe ./build/lsm6dso_reg.o
                0x0000000008000fc6                lsm6dso_write_reg
 .text.lsm6dso_from_fs2_to_mg
                0x0000000008000fd4       0x18 ./build/lsm6dso_reg.o
                0x0000000008000fd4                lsm6dso_from_fs2_to_mg
 .text.lsm6dso_from_fs4_to_mg
                0x0000000008000fec       0x18 ./build/lsm6dso_reg.o
                0x0000000008000fec                lsm6dso_from_fs4_to_mg
 .text.lsm6dso_from_fs8_to_mg
                0x0000000008001004       0x18 ./build/lsm6dso_reg.o
                0x0000000008001004                lsm6dso_from_fs8_to_mg
 .text.lsm6dso_from_fs16_to_mg
                0x000000000800101c       0x18 ./build/lsm6dso_reg.o
                0x000000000800101c                lsm6dso_from_fs16_to_mg
 .text.lsm6dso_from_fs125_to_mdps
                0x0000000008001034       0x18 ./build/lsm6dso_reg.o
                0x0000000008001034                lsm6dso_from_fs125_to_mdps
 .text.lsm6dso_from_fs500_to_mdps
                0x000000000800104c       0x18 ./build/lsm6dso_reg.o
                0x000000000800104c                lsm6dso_from_fs500_to_mdps
 .text.lsm6dso_from_fs250_to_mdps
                0x0000000008001064       0x18 ./build/lsm6dso_reg.o
                0x0000000008001064                lsm6dso_from_fs250_to_mdps
 .text.lsm6dso_from_fs1000_to_mdps
                0x000000000800107c       0x18 ./build/lsm6dso_reg.o
                0x000000000800107c                lsm6dso_from_fs1000_to_mdps
 .text.lsm6dso_from_fs2000_to_mdps
                0x0000000008001094       0x18 ./build/lsm6dso_reg.o
                0x0000000008001094                lsm6dso_from_fs2000_to_mdps
 .text.lsm6dso_from_lsb_to_celsius
                0x00000000080010ac       0x12 ./build/lsm6dso_reg.o
                0x00000000080010ac                lsm6dso_from_lsb_to_celsius
 *fill*         0x00000000080010be        0x2 
 .text.lsm6dso_from_lsb_to_nsec
                0x00000000080010c0       0x18 ./build/lsm6dso_reg.o
                0x00000000080010c0                lsm6dso_from_lsb_to_nsec
 .text.lsm6dso_xl_full_scale_set
                0x00000000080010d8       0x2e ./build/lsm6dso_reg.o
                0x00000000080010d8                lsm6dso_xl_full_scale_set
 .text.lsm6dso_xl_full_scale_get
                0x0000000008001106       0x2e ./build/lsm6dso_reg.o
                0x0000000008001106                lsm6dso_xl_full_scale_get
 .text.lsm6dso_xl_data_rate_get
                0x0000000008001134       0x5c ./build/lsm6dso_reg.o
                0x0000000008001134                lsm6dso_xl_data_rate_get
 .text.lsm6dso_gy_full_scale_set
                0x0000000008001190       0x2e ./build/lsm6dso_reg.o
                0x0000000008001190                lsm6dso_gy_full_scale_set
 .text.lsm6dso_gy_full_scale_get
                0x00000000080011be       0x3e ./build/lsm6dso_reg.o
                0x00000000080011be                lsm6dso_gy_full_scale_get
 .text.lsm6dso_gy_data_rate_get
                0x00000000080011fc       0x58 ./build/lsm6dso_reg.o
                0x00000000080011fc                lsm6dso_gy_data_rate_get
 .text.lsm6dso_block_data_update_set
                0x0000000008001254       0x2e ./build/lsm6dso_reg.o
                0x0000000008001254                lsm6dso_block_data_update_set
 .text.lsm6dso_block_data_update_get
                0x0000000008001282       0x1c ./build/lsm6dso_reg.o
                0x0000000008001282                lsm6dso_block_data_update_get
 .text.lsm6dso_xl_offset_weight_set
                0x000000000800129e       0x2e ./build/lsm6dso_reg.o
                0x000000000800129e                lsm6dso_xl_offset_weight_set
 .text.lsm6dso_xl_offset_weight_get
                0x00000000080012cc       0x24 ./build/lsm6dso_reg.o
                0x00000000080012cc                lsm6dso_xl_offset_weight_get
 .text.lsm6dso_xl_power_mode_set
                0x00000000080012f0       0x58 ./build/lsm6dso_reg.o
                0x00000000080012f0                lsm6dso_xl_power_mode_set
 .text.lsm6dso_xl_power_mode_get
                0x0000000008001348       0x40 ./build/lsm6dso_reg.o
                0x0000000008001348                lsm6dso_xl_power_mode_get
 .text.lsm6dso_gy_power_mode_set
                0x0000000008001388       0x2e ./build/lsm6dso_reg.o
                0x0000000008001388                lsm6dso_gy_power_mode_set
 .text.lsm6dso_gy_power_mode_get
                0x00000000080013b6       0x24 ./build/lsm6dso_reg.o
                0x00000000080013b6                lsm6dso_gy_power_mode_get
 .text.lsm6dso_status_reg_get
                0x00000000080013da        0xa ./build/lsm6dso_reg.o
                0x00000000080013da                lsm6dso_status_reg_get
 .text.lsm6dso_xl_flag_data_ready_get
                0x00000000080013e4       0x1c ./build/lsm6dso_reg.o
                0x00000000080013e4                lsm6dso_xl_flag_data_ready_get
 .text.lsm6dso_gy_flag_data_ready_get
                0x0000000008001400       0x1c ./build/lsm6dso_reg.o
                0x0000000008001400                lsm6dso_gy_flag_data_ready_get
 .text.lsm6dso_temp_flag_data_ready_get
                0x000000000800141c       0x1c ./build/lsm6dso_reg.o
                0x000000000800141c                lsm6dso_temp_flag_data_ready_get
 .text.lsm6dso_xl_usr_offset_x_set
                0x0000000008001438        0xa ./build/lsm6dso_reg.o
                0x0000000008001438                lsm6dso_xl_usr_offset_x_set
 .text.lsm6dso_xl_usr_offset_x_get
                0x0000000008001442        0xa ./build/lsm6dso_reg.o
                0x0000000008001442                lsm6dso_xl_usr_offset_x_get
 .text.lsm6dso_xl_usr_offset_y_set
                0x000000000800144c        0xa ./build/lsm6dso_reg.o
                0x000000000800144c                lsm6dso_xl_usr_offset_y_set
 .text.lsm6dso_xl_usr_offset_y_get
                0x0000000008001456        0xa ./build/lsm6dso_reg.o
                0x0000000008001456                lsm6dso_xl_usr_offset_y_get
 .text.lsm6dso_xl_usr_offset_z_set
                0x0000000008001460        0xa ./build/lsm6dso_reg.o
                0x0000000008001460                lsm6dso_xl_usr_offset_z_set
 .text.lsm6dso_xl_usr_offset_z_get
                0x000000000800146a        0xa ./build/lsm6dso_reg.o
                0x000000000800146a                lsm6dso_xl_usr_offset_z_get
 .text.lsm6dso_xl_usr_offset_set
                0x0000000008001474       0x2e ./build/lsm6dso_reg.o
                0x0000000008001474                lsm6dso_xl_usr_offset_set
 .text.lsm6dso_xl_usr_offset_get
                0x00000000080014a2       0x1c ./build/lsm6dso_reg.o
                0x00000000080014a2                lsm6dso_xl_usr_offset_get
 .text.lsm6dso_timestamp_rst
                0x00000000080014be       0x1a ./build/lsm6dso_reg.o
                0x00000000080014be                lsm6dso_timestamp_rst
 .text.lsm6dso_timestamp_set
                0x00000000080014d8       0x2e ./build/lsm6dso_reg.o
                0x00000000080014d8                lsm6dso_timestamp_set
 .text.lsm6dso_timestamp_get
                0x0000000008001506       0x1c ./build/lsm6dso_reg.o
                0x0000000008001506                lsm6dso_timestamp_get
 .text.lsm6dso_timestamp_raw_get
                0x0000000008001522        0xa ./build/lsm6dso_reg.o
                0x0000000008001522                lsm6dso_timestamp_raw_get
 .text.lsm6dso_rounding_mode_set
                0x000000000800152c       0x2e ./build/lsm6dso_reg.o
                0x000000000800152c                lsm6dso_rounding_mode_set
 .text.lsm6dso_rounding_mode_get
                0x000000000800155a       0x2e ./build/lsm6dso_reg.o
                0x000000000800155a                lsm6dso_rounding_mode_get
 .text.lsm6dso_temperature_raw_get
                0x0000000008001588        0xa ./build/lsm6dso_reg.o
                0x0000000008001588                lsm6dso_temperature_raw_get
 .text.lsm6dso_angular_rate_raw_get
                0x0000000008001592        0xa ./build/lsm6dso_reg.o
                0x0000000008001592                lsm6dso_angular_rate_raw_get
 .text.lsm6dso_acceleration_raw_get
                0x000000000800159c        0xa ./build/lsm6dso_reg.o
                0x000000000800159c                lsm6dso_acceleration_raw_get
 .text.lsm6dso_fifo_out_raw_get
                0x00000000080015a6        0xa ./build/lsm6dso_reg.o
                0x00000000080015a6                lsm6dso_fifo_out_raw_get
 .text.lsm6dso_odr_cal_reg_set
                0x00000000080015b0       0x26 ./build/lsm6dso_reg.o
                0x00000000080015b0                lsm6dso_odr_cal_reg_set
 .text.lsm6dso_odr_cal_reg_get
                0x00000000080015d6       0x18 ./build/lsm6dso_reg.o
                0x00000000080015d6                lsm6dso_odr_cal_reg_get
 .text.lsm6dso_mem_bank_set
                0x00000000080015ee       0x2e ./build/lsm6dso_reg.o
                0x00000000080015ee                lsm6dso_mem_bank_set
 .text.lsm6dso_all_sources_get
                0x000000000800161c       0x8c ./build/lsm6dso_reg.o
                0x000000000800161c                lsm6dso_all_sources_get
 .text.lsm6dso_number_of_steps_get
                0x00000000080016a8       0x2e ./build/lsm6dso_reg.o
                0x00000000080016a8                lsm6dso_number_of_steps_get
 .text.lsm6dso_steps_reset
                0x00000000080016d6       0x40 ./build/lsm6dso_reg.o
                0x00000000080016d6                lsm6dso_steps_reset
 .text.lsm6dso_mem_bank_get
                0x0000000008001716       0x2c ./build/lsm6dso_reg.o
                0x0000000008001716                lsm6dso_mem_bank_get
 .text.lsm6dso_ln_pg_write_byte
                0x0000000008001742       0xbe ./build/lsm6dso_reg.o
                0x0000000008001742                lsm6dso_ln_pg_write_byte
 .text.lsm6dso_ln_pg_write
                0x0000000008001800      0x116 ./build/lsm6dso_reg.o
                0x0000000008001800                lsm6dso_ln_pg_write
 .text.lsm6dso_ln_pg_read_byte
                0x0000000008001916       0xba ./build/lsm6dso_reg.o
                0x0000000008001916                lsm6dso_ln_pg_read_byte
 .text.lsm6dso_data_ready_mode_set
                0x00000000080019d0       0x2e ./build/lsm6dso_reg.o
                0x00000000080019d0                lsm6dso_data_ready_mode_set
 .text.lsm6dso_data_ready_mode_get
                0x00000000080019fe       0x24 ./build/lsm6dso_reg.o
                0x00000000080019fe                lsm6dso_data_ready_mode_get
 .text.lsm6dso_device_id_get
                0x0000000008001a22        0xa ./build/lsm6dso_reg.o
                0x0000000008001a22                lsm6dso_device_id_get
 .text.lsm6dso_reset_set
                0x0000000008001a2c       0x2e ./build/lsm6dso_reg.o
                0x0000000008001a2c                lsm6dso_reset_set
 .text.lsm6dso_reset_get
                0x0000000008001a5a       0x1c ./build/lsm6dso_reg.o
                0x0000000008001a5a                lsm6dso_reset_get
 .text.lsm6dso_auto_increment_set
                0x0000000008001a76       0x2e ./build/lsm6dso_reg.o
                0x0000000008001a76                lsm6dso_auto_increment_set
 .text.lsm6dso_auto_increment_get
                0x0000000008001aa4       0x1c ./build/lsm6dso_reg.o
                0x0000000008001aa4                lsm6dso_auto_increment_get
 .text.lsm6dso_boot_set
                0x0000000008001ac0       0x2e ./build/lsm6dso_reg.o
                0x0000000008001ac0                lsm6dso_boot_set
 .text.lsm6dso_boot_get
                0x0000000008001aee       0x1c ./build/lsm6dso_reg.o
                0x0000000008001aee                lsm6dso_boot_get
 .text.lsm6dso_xl_self_test_set
                0x0000000008001b0a       0x2e ./build/lsm6dso_reg.o
                0x0000000008001b0a                lsm6dso_xl_self_test_set
 .text.lsm6dso_xl_self_test_get
                0x0000000008001b38       0x2e ./build/lsm6dso_reg.o
                0x0000000008001b38                lsm6dso_xl_self_test_get
 .text.lsm6dso_gy_self_test_set
                0x0000000008001b66       0x2e ./build/lsm6dso_reg.o
                0x0000000008001b66                lsm6dso_gy_self_test_set
 .text.lsm6dso_gy_self_test_get
                0x0000000008001b94       0x2a ./build/lsm6dso_reg.o
                0x0000000008001b94                lsm6dso_gy_self_test_get
 .text.lsm6dso_xl_filter_lp2_set
                0x0000000008001bbe       0x2e ./build/lsm6dso_reg.o
                0x0000000008001bbe                lsm6dso_xl_filter_lp2_set
 .text.lsm6dso_xl_filter_lp2_get
                0x0000000008001bec       0x1c ./build/lsm6dso_reg.o
                0x0000000008001bec                lsm6dso_xl_filter_lp2_get
 .text.lsm6dso_gy_filter_lp1_set
                0x0000000008001c08       0x2e ./build/lsm6dso_reg.o
                0x0000000008001c08                lsm6dso_gy_filter_lp1_set
 .text.lsm6dso_gy_filter_lp1_get
                0x0000000008001c36       0x1c ./build/lsm6dso_reg.o
                0x0000000008001c36                lsm6dso_gy_filter_lp1_get
 .text.lsm6dso_filter_settling_mask_set
                0x0000000008001c52       0x2e ./build/lsm6dso_reg.o
                0x0000000008001c52                lsm6dso_filter_settling_mask_set
 .text.lsm6dso_filter_settling_mask_get
                0x0000000008001c80       0x1c ./build/lsm6dso_reg.o
                0x0000000008001c80                lsm6dso_filter_settling_mask_get
 .text.lsm6dso_gy_lp1_bandwidth_set
                0x0000000008001c9c       0x2e ./build/lsm6dso_reg.o
                0x0000000008001c9c                lsm6dso_gy_lp1_bandwidth_set
 .text.lsm6dso_gy_lp1_bandwidth_get
                0x0000000008001cca       0x4c ./build/lsm6dso_reg.o
                0x0000000008001cca                lsm6dso_gy_lp1_bandwidth_get
 .text.lsm6dso_xl_lp2_on_6d_set
                0x0000000008001d16       0x2e ./build/lsm6dso_reg.o
                0x0000000008001d16                lsm6dso_xl_lp2_on_6d_set
 .text.lsm6dso_xl_lp2_on_6d_get
                0x0000000008001d44       0x1c ./build/lsm6dso_reg.o
                0x0000000008001d44                lsm6dso_xl_lp2_on_6d_get
 .text.lsm6dso_xl_hp_path_on_out_set
                0x0000000008001d60       0x42 ./build/lsm6dso_reg.o
                0x0000000008001d60                lsm6dso_xl_hp_path_on_out_set
 .text.lsm6dso_xl_hp_path_on_out_get
                0x0000000008001da2       0xc4 ./build/lsm6dso_reg.o
                0x0000000008001da2                lsm6dso_xl_hp_path_on_out_get
 .text.lsm6dso_xl_fast_settling_set
                0x0000000008001e66       0x2e ./build/lsm6dso_reg.o
                0x0000000008001e66                lsm6dso_xl_fast_settling_set
 .text.lsm6dso_xl_fast_settling_get
                0x0000000008001e94       0x1c ./build/lsm6dso_reg.o
                0x0000000008001e94                lsm6dso_xl_fast_settling_get
 .text.lsm6dso_xl_hp_path_internal_set
                0x0000000008001eb0       0x2e ./build/lsm6dso_reg.o
                0x0000000008001eb0                lsm6dso_xl_hp_path_internal_set
 .text.lsm6dso_xl_hp_path_internal_get
                0x0000000008001ede       0x24 ./build/lsm6dso_reg.o
                0x0000000008001ede                lsm6dso_xl_hp_path_internal_get
 .text.lsm6dso_gy_hp_path_internal_set
                0x0000000008001f02       0x3c ./build/lsm6dso_reg.o
                0x0000000008001f02                lsm6dso_gy_hp_path_internal_set
 .text.lsm6dso_gy_hp_path_internal_get
                0x0000000008001f3e       0x44 ./build/lsm6dso_reg.o
                0x0000000008001f3e                lsm6dso_gy_hp_path_internal_get
 .text.lsm6dso_aux_sdo_ocs_mode_set
                0x0000000008001f82       0x2e ./build/lsm6dso_reg.o
                0x0000000008001f82                lsm6dso_aux_sdo_ocs_mode_set
 .text.lsm6dso_aux_sdo_ocs_mode_get
                0x0000000008001fb0       0x24 ./build/lsm6dso_reg.o
                0x0000000008001fb0                lsm6dso_aux_sdo_ocs_mode_get
 .text.lsm6dso_aux_pw_on_ctrl_set
                0x0000000008001fd4       0x36 ./build/lsm6dso_reg.o
                0x0000000008001fd4                lsm6dso_aux_pw_on_ctrl_set
 .text.lsm6dso_aux_pw_on_ctrl_get
                0x000000000800200a       0x24 ./build/lsm6dso_reg.o
                0x000000000800200a                lsm6dso_aux_pw_on_ctrl_get
 .text.lsm6dso_aux_xl_fs_mode_set
                0x000000000800202e       0x2e ./build/lsm6dso_reg.o
                0x000000000800202e                lsm6dso_aux_xl_fs_mode_set
 .text.lsm6dso_aux_xl_fs_mode_get
                0x000000000800205c       0x24 ./build/lsm6dso_reg.o
                0x000000000800205c                lsm6dso_aux_xl_fs_mode_get
 .text.lsm6dso_aux_status_reg_get
                0x0000000008002080        0xa ./build/lsm6dso_reg.o
                0x0000000008002080                lsm6dso_aux_status_reg_get
 .text.lsm6dso_aux_xl_flag_data_ready_get
                0x000000000800208a       0x1c ./build/lsm6dso_reg.o
                0x000000000800208a                lsm6dso_aux_xl_flag_data_ready_get
 .text.lsm6dso_aux_gy_flag_data_ready_get
                0x00000000080020a6       0x1c ./build/lsm6dso_reg.o
                0x00000000080020a6                lsm6dso_aux_gy_flag_data_ready_get
 .text.lsm6dso_aux_gy_flag_settling_get
                0x00000000080020c2       0x1c ./build/lsm6dso_reg.o
                0x00000000080020c2                lsm6dso_aux_gy_flag_settling_get
 .text.lsm6dso_aux_xl_self_test_set
                0x00000000080020de       0x2e ./build/lsm6dso_reg.o
                0x00000000080020de                lsm6dso_aux_xl_self_test_set
 .text.lsm6dso_aux_xl_self_test_get
                0x000000000800210c       0x2e ./build/lsm6dso_reg.o
                0x000000000800210c                lsm6dso_aux_xl_self_test_get
 .text.lsm6dso_aux_den_polarity_set
                0x000000000800213a       0x2e ./build/lsm6dso_reg.o
                0x000000000800213a                lsm6dso_aux_den_polarity_set
 .text.lsm6dso_aux_den_polarity_get
                0x0000000008002168       0x24 ./build/lsm6dso_reg.o
                0x0000000008002168                lsm6dso_aux_den_polarity_get
 .text.lsm6dso_aux_den_mode_set
                0x000000000800218c       0x58 ./build/lsm6dso_reg.o
                0x000000000800218c                lsm6dso_aux_den_mode_set
 .text.lsm6dso_aux_den_mode_get
                0x00000000080021e4       0x42 ./build/lsm6dso_reg.o
                0x00000000080021e4                lsm6dso_aux_den_mode_get
 .text.lsm6dso_aux_drdy_on_int2_set
                0x0000000008002226       0x2e ./build/lsm6dso_reg.o
                0x0000000008002226                lsm6dso_aux_drdy_on_int2_set
 .text.lsm6dso_aux_drdy_on_int2_get
                0x0000000008002254       0x1c ./build/lsm6dso_reg.o
                0x0000000008002254                lsm6dso_aux_drdy_on_int2_get
 .text.lsm6dso_aux_mode_set
                0x0000000008002270       0x3c ./build/lsm6dso_reg.o
                0x0000000008002270                lsm6dso_aux_mode_set
 .text.lsm6dso_aux_mode_get
                0x00000000080022ac       0x2e ./build/lsm6dso_reg.o
                0x00000000080022ac                lsm6dso_aux_mode_get
 .text.lsm6dso_aux_gy_full_scale_set
                0x00000000080022da       0x2e ./build/lsm6dso_reg.o
                0x00000000080022da                lsm6dso_aux_gy_full_scale_set
 .text.lsm6dso_aux_gy_full_scale_get
                0x0000000008002308       0x3e ./build/lsm6dso_reg.o
                0x0000000008002308                lsm6dso_aux_gy_full_scale_get
 .text.lsm6dso_aux_spi_mode_set
                0x0000000008002346       0x2e ./build/lsm6dso_reg.o
                0x0000000008002346                lsm6dso_aux_spi_mode_set
 .text.lsm6dso_aux_spi_mode_get
                0x0000000008002374       0x24 ./build/lsm6dso_reg.o
                0x0000000008002374                lsm6dso_aux_spi_mode_get
 .text.lsm6dso_aux_gy_lp1_bandwidth_set
                0x0000000008002398       0x2e ./build/lsm6dso_reg.o
                0x0000000008002398                lsm6dso_aux_gy_lp1_bandwidth_set
 .text.lsm6dso_aux_gy_lp1_bandwidth_get
                0x00000000080023c6       0x2e ./build/lsm6dso_reg.o
                0x00000000080023c6                lsm6dso_aux_gy_lp1_bandwidth_get
 .text.lsm6dso_aux_gy_hp_bandwidth_set
                0x00000000080023f4       0x3c ./build/lsm6dso_reg.o
                0x00000000080023f4                lsm6dso_aux_gy_hp_bandwidth_set
 .text.lsm6dso_aux_gy_hp_bandwidth_get
                0x0000000008002430       0x44 ./build/lsm6dso_reg.o
                0x0000000008002430                lsm6dso_aux_gy_hp_bandwidth_get
 .text.lsm6dso_aux_gy_clamp_set
                0x0000000008002474       0x2e ./build/lsm6dso_reg.o
                0x0000000008002474                lsm6dso_aux_gy_clamp_set
 .text.lsm6dso_aux_gy_clamp_get
                0x00000000080024a2       0x24 ./build/lsm6dso_reg.o
                0x00000000080024a2                lsm6dso_aux_gy_clamp_get
 .text.lsm6dso_aux_gy_self_test_set
                0x00000000080024c6       0x2e ./build/lsm6dso_reg.o
                0x00000000080024c6                lsm6dso_aux_gy_self_test_set
 .text.lsm6dso_aux_gy_self_test_get
                0x00000000080024f4       0x2a ./build/lsm6dso_reg.o
                0x00000000080024f4                lsm6dso_aux_gy_self_test_get
 .text.lsm6dso_aux_xl_bandwidth_set
                0x000000000800251e       0x2e ./build/lsm6dso_reg.o
                0x000000000800251e                lsm6dso_aux_xl_bandwidth_set
 .text.lsm6dso_aux_xl_bandwidth_get
                0x000000000800254c       0x4c ./build/lsm6dso_reg.o
                0x000000000800254c                lsm6dso_aux_xl_bandwidth_get
 .text.lsm6dso_aux_xl_full_scale_set
                0x0000000008002598       0x2e ./build/lsm6dso_reg.o
                0x0000000008002598                lsm6dso_aux_xl_full_scale_set
 .text.lsm6dso_aux_xl_full_scale_get
                0x00000000080025c6       0x30 ./build/lsm6dso_reg.o
                0x00000000080025c6                lsm6dso_aux_xl_full_scale_get
 .text.lsm6dso_sdo_sa0_mode_set
                0x00000000080025f6       0x2e ./build/lsm6dso_reg.o
                0x00000000080025f6                lsm6dso_sdo_sa0_mode_set
 .text.lsm6dso_sdo_sa0_mode_get
                0x0000000008002624       0x24 ./build/lsm6dso_reg.o
                0x0000000008002624                lsm6dso_sdo_sa0_mode_get
 .text.lsm6dso_spi_mode_set
                0x0000000008002648       0x2e ./build/lsm6dso_reg.o
                0x0000000008002648                lsm6dso_spi_mode_set
 .text.lsm6dso_spi_mode_get
                0x0000000008002676       0x24 ./build/lsm6dso_reg.o
                0x0000000008002676                lsm6dso_spi_mode_get
 .text.lsm6dso_i2c_interface_set
                0x000000000800269a       0x2e ./build/lsm6dso_reg.o
                0x000000000800269a                lsm6dso_i2c_interface_set
 .text.lsm6dso_i2c_interface_get
                0x00000000080026c8       0x24 ./build/lsm6dso_reg.o
                0x00000000080026c8                lsm6dso_i2c_interface_get
 .text.lsm6dso_i3c_disable_set
                0x00000000080026ec       0x58 ./build/lsm6dso_reg.o
                0x00000000080026ec                lsm6dso_i3c_disable_set
 .text.lsm6dso_i3c_disable_get
                0x0000000008002744       0x56 ./build/lsm6dso_reg.o
                0x0000000008002744                lsm6dso_i3c_disable_get
 .text.lsm6dso_int1_mode_set
                0x000000000800279a       0x2e ./build/lsm6dso_reg.o
                0x000000000800279a                lsm6dso_int1_mode_set
 .text.lsm6dso_int1_mode_get
                0x00000000080027c8       0x24 ./build/lsm6dso_reg.o
                0x00000000080027c8                lsm6dso_int1_mode_get
 .text.lsm6dso_pin_int1_route_get
                0x00000000080027ec       0x62 ./build/lsm6dso_reg.o
                0x00000000080027ec                lsm6dso_pin_int1_route_get
 .text.lsm6dso_pin_int2_route_set
                0x000000000800284e      0x1d4 ./build/lsm6dso_reg.o
                0x000000000800284e                lsm6dso_pin_int2_route_set
 .text.lsm6dso_pin_int2_route_get
                0x0000000008002a22       0x62 ./build/lsm6dso_reg.o
                0x0000000008002a22                lsm6dso_pin_int2_route_get
 .text.lsm6dso_pin_int1_route_set
                0x0000000008002a84      0x1d4 ./build/lsm6dso_reg.o
                0x0000000008002a84                lsm6dso_pin_int1_route_set
 .text.lsm6dso_pin_mode_set
                0x0000000008002c58       0x2e ./build/lsm6dso_reg.o
                0x0000000008002c58                lsm6dso_pin_mode_set
 .text.lsm6dso_pin_mode_get
                0x0000000008002c86       0x24 ./build/lsm6dso_reg.o
                0x0000000008002c86                lsm6dso_pin_mode_get
 .text.lsm6dso_pin_polarity_set
                0x0000000008002caa       0x2e ./build/lsm6dso_reg.o
                0x0000000008002caa                lsm6dso_pin_polarity_set
 .text.lsm6dso_pin_polarity_get
                0x0000000008002cd8       0x24 ./build/lsm6dso_reg.o
                0x0000000008002cd8                lsm6dso_pin_polarity_get
 .text.lsm6dso_all_on_int1_set
                0x0000000008002cfc       0x2e ./build/lsm6dso_reg.o
                0x0000000008002cfc                lsm6dso_all_on_int1_set
 .text.lsm6dso_all_on_int1_get
                0x0000000008002d2a       0x1c ./build/lsm6dso_reg.o
                0x0000000008002d2a                lsm6dso_all_on_int1_get
 .text.lsm6dso_int_notification_set
                0x0000000008002d46       0x74 ./build/lsm6dso_reg.o
                0x0000000008002d46                lsm6dso_int_notification_set
 .text.lsm6dso_int_notification_get
                0x0000000008002dba       0x7e ./build/lsm6dso_reg.o
                0x0000000008002dba                lsm6dso_int_notification_get
 .text.lsm6dso_wkup_ths_weight_set
                0x0000000008002e38       0x2e ./build/lsm6dso_reg.o
                0x0000000008002e38                lsm6dso_wkup_ths_weight_set
 .text.lsm6dso_wkup_ths_weight_get
                0x0000000008002e66       0x24 ./build/lsm6dso_reg.o
                0x0000000008002e66                lsm6dso_wkup_ths_weight_get
 .text.lsm6dso_wkup_threshold_set
                0x0000000008002e8a       0x2e ./build/lsm6dso_reg.o
                0x0000000008002e8a                lsm6dso_wkup_threshold_set
 .text.lsm6dso_wkup_threshold_get
                0x0000000008002eb8       0x1c ./build/lsm6dso_reg.o
                0x0000000008002eb8                lsm6dso_wkup_threshold_get
 .text.lsm6dso_xl_usr_offset_on_wkup_set
                0x0000000008002ed4       0x2e ./build/lsm6dso_reg.o
                0x0000000008002ed4                lsm6dso_xl_usr_offset_on_wkup_set
 .text.lsm6dso_xl_usr_offset_on_wkup_get
                0x0000000008002f02       0x1c ./build/lsm6dso_reg.o
                0x0000000008002f02                lsm6dso_xl_usr_offset_on_wkup_get
 .text.lsm6dso_wkup_dur_set
                0x0000000008002f1e       0x2e ./build/lsm6dso_reg.o
                0x0000000008002f1e                lsm6dso_wkup_dur_set
 .text.lsm6dso_wkup_dur_get
                0x0000000008002f4c       0x1c ./build/lsm6dso_reg.o
                0x0000000008002f4c                lsm6dso_wkup_dur_get
 .text.lsm6dso_gy_sleep_mode_set
                0x0000000008002f68       0x2e ./build/lsm6dso_reg.o
                0x0000000008002f68                lsm6dso_gy_sleep_mode_set
 .text.lsm6dso_gy_sleep_mode_get
                0x0000000008002f96       0x1c ./build/lsm6dso_reg.o
                0x0000000008002f96                lsm6dso_gy_sleep_mode_get
 .text.lsm6dso_act_pin_notification_set
                0x0000000008002fb2       0x2e ./build/lsm6dso_reg.o
                0x0000000008002fb2                lsm6dso_act_pin_notification_set
 .text.lsm6dso_act_pin_notification_get
                0x0000000008002fe0       0x24 ./build/lsm6dso_reg.o
                0x0000000008002fe0                lsm6dso_act_pin_notification_get
 .text.lsm6dso_act_mode_set
                0x0000000008003004       0x2e ./build/lsm6dso_reg.o
                0x0000000008003004                lsm6dso_act_mode_set
 .text.lsm6dso_act_mode_get
                0x0000000008003032       0x2e ./build/lsm6dso_reg.o
                0x0000000008003032                lsm6dso_act_mode_get
 .text.lsm6dso_act_sleep_dur_set
                0x0000000008003060       0x2e ./build/lsm6dso_reg.o
                0x0000000008003060                lsm6dso_act_sleep_dur_set
 .text.lsm6dso_act_sleep_dur_get
                0x000000000800308e       0x1c ./build/lsm6dso_reg.o
                0x000000000800308e                lsm6dso_act_sleep_dur_get
 .text.lsm6dso_tap_detection_on_z_set
                0x00000000080030aa       0x2e ./build/lsm6dso_reg.o
                0x00000000080030aa                lsm6dso_tap_detection_on_z_set
 .text.lsm6dso_tap_detection_on_z_get
                0x00000000080030d8       0x1c ./build/lsm6dso_reg.o
                0x00000000080030d8                lsm6dso_tap_detection_on_z_get
 .text.lsm6dso_tap_detection_on_y_set
                0x00000000080030f4       0x2e ./build/lsm6dso_reg.o
                0x00000000080030f4                lsm6dso_tap_detection_on_y_set
 .text.lsm6dso_tap_detection_on_y_get
                0x0000000008003122       0x1c ./build/lsm6dso_reg.o
                0x0000000008003122                lsm6dso_tap_detection_on_y_get
 .text.lsm6dso_tap_detection_on_x_set
                0x000000000800313e       0x2e ./build/lsm6dso_reg.o
                0x000000000800313e                lsm6dso_tap_detection_on_x_set
 .text.lsm6dso_tap_detection_on_x_get
                0x000000000800316c       0x1c ./build/lsm6dso_reg.o
                0x000000000800316c                lsm6dso_tap_detection_on_x_get
 .text.lsm6dso_tap_threshold_x_set
                0x0000000008003188       0x2e ./build/lsm6dso_reg.o
                0x0000000008003188                lsm6dso_tap_threshold_x_set
 .text.lsm6dso_tap_threshold_x_get
                0x00000000080031b6       0x1c ./build/lsm6dso_reg.o
                0x00000000080031b6                lsm6dso_tap_threshold_x_get
 .text.lsm6dso_tap_axis_priority_set
                0x00000000080031d2       0x2e ./build/lsm6dso_reg.o
                0x00000000080031d2                lsm6dso_tap_axis_priority_set
 .text.lsm6dso_tap_axis_priority_get
                0x0000000008003200       0x40 ./build/lsm6dso_reg.o
                0x0000000008003200                lsm6dso_tap_axis_priority_get
 .text.lsm6dso_tap_threshold_y_set
                0x0000000008003240       0x2e ./build/lsm6dso_reg.o
                0x0000000008003240                lsm6dso_tap_threshold_y_set
 .text.lsm6dso_tap_threshold_y_get
                0x000000000800326e       0x1c ./build/lsm6dso_reg.o
                0x000000000800326e                lsm6dso_tap_threshold_y_get
 .text.lsm6dso_tap_threshold_z_set
                0x000000000800328a       0x2e ./build/lsm6dso_reg.o
                0x000000000800328a                lsm6dso_tap_threshold_z_set
 .text.lsm6dso_tap_threshold_z_get
                0x00000000080032b8       0x1c ./build/lsm6dso_reg.o
                0x00000000080032b8                lsm6dso_tap_threshold_z_get
 .text.lsm6dso_tap_shock_set
                0x00000000080032d4       0x2e ./build/lsm6dso_reg.o
                0x00000000080032d4                lsm6dso_tap_shock_set
 .text.lsm6dso_tap_shock_get
                0x0000000008003302       0x1c ./build/lsm6dso_reg.o
                0x0000000008003302                lsm6dso_tap_shock_get
 .text.lsm6dso_tap_quiet_set
                0x000000000800331e       0x2e ./build/lsm6dso_reg.o
                0x000000000800331e                lsm6dso_tap_quiet_set
 .text.lsm6dso_tap_quiet_get
                0x000000000800334c       0x1c ./build/lsm6dso_reg.o
                0x000000000800334c                lsm6dso_tap_quiet_get
 .text.lsm6dso_tap_dur_set
                0x0000000008003368       0x2e ./build/lsm6dso_reg.o
                0x0000000008003368                lsm6dso_tap_dur_set
 .text.lsm6dso_tap_dur_get
                0x0000000008003396       0x1c ./build/lsm6dso_reg.o
                0x0000000008003396                lsm6dso_tap_dur_get
 .text.lsm6dso_tap_mode_set
                0x00000000080033b2       0x2e ./build/lsm6dso_reg.o
                0x00000000080033b2                lsm6dso_tap_mode_set
 .text.lsm6dso_tap_mode_get
                0x00000000080033e0       0x24 ./build/lsm6dso_reg.o
                0x00000000080033e0                lsm6dso_tap_mode_get
 .text.lsm6dso_6d_threshold_set
                0x0000000008003404       0x2e ./build/lsm6dso_reg.o
                0x0000000008003404                lsm6dso_6d_threshold_set
 .text.lsm6dso_6d_threshold_get
                0x0000000008003432       0x2e ./build/lsm6dso_reg.o
                0x0000000008003432                lsm6dso_6d_threshold_get
 .text.lsm6dso_4d_mode_set
                0x0000000008003460       0x2e ./build/lsm6dso_reg.o
                0x0000000008003460                lsm6dso_4d_mode_set
 .text.lsm6dso_4d_mode_get
                0x000000000800348e       0x1c ./build/lsm6dso_reg.o
                0x000000000800348e                lsm6dso_4d_mode_get
 .text.lsm6dso_ff_threshold_set
                0x00000000080034aa       0x2e ./build/lsm6dso_reg.o
                0x00000000080034aa                lsm6dso_ff_threshold_set
 .text.lsm6dso_ff_threshold_get
                0x00000000080034d8       0x4c ./build/lsm6dso_reg.o
                0x00000000080034d8                lsm6dso_ff_threshold_get
 .text.lsm6dso_ff_dur_set
                0x0000000008003524       0x58 ./build/lsm6dso_reg.o
                0x0000000008003524                lsm6dso_ff_dur_set
 .text.lsm6dso_ff_dur_get
                0x000000000800357c       0x38 ./build/lsm6dso_reg.o
                0x000000000800357c                lsm6dso_ff_dur_get
 .text.lsm6dso_fifo_watermark_set
                0x00000000080035b4       0x42 ./build/lsm6dso_reg.o
                0x00000000080035b4                lsm6dso_fifo_watermark_set
 .text.lsm6dso_fifo_watermark_get
                0x00000000080035f6       0x34 ./build/lsm6dso_reg.o
                0x00000000080035f6                lsm6dso_fifo_watermark_get
 .text.lsm6dso_compression_algo_init_set
                0x000000000800362a       0x42 ./build/lsm6dso_reg.o
                0x000000000800362a                lsm6dso_compression_algo_init_set
 .text.lsm6dso_compression_algo_init_get
                0x000000000800366c       0x32 ./build/lsm6dso_reg.o
                0x000000000800366c                lsm6dso_compression_algo_init_get
 .text.lsm6dso_compression_algo_set
                0x000000000800369e       0x72 ./build/lsm6dso_reg.o
                0x000000000800369e                lsm6dso_compression_algo_set
 .text.lsm6dso_compression_algo_get
                0x0000000008003710       0x44 ./build/lsm6dso_reg.o
                0x0000000008003710                lsm6dso_compression_algo_get
 .text.lsm6dso_fifo_virtual_sens_odr_chg_set
                0x0000000008003754       0x2e ./build/lsm6dso_reg.o
                0x0000000008003754                lsm6dso_fifo_virtual_sens_odr_chg_set
 .text.lsm6dso_fifo_virtual_sens_odr_chg_get
                0x0000000008003782       0x1c ./build/lsm6dso_reg.o
                0x0000000008003782                lsm6dso_fifo_virtual_sens_odr_chg_get
 .text.lsm6dso_compression_algo_real_time_set
                0x000000000800379e       0x2e ./build/lsm6dso_reg.o
                0x000000000800379e                lsm6dso_compression_algo_real_time_set
 .text.lsm6dso_compression_algo_real_time_get
                0x00000000080037cc       0x1c ./build/lsm6dso_reg.o
                0x00000000080037cc                lsm6dso_compression_algo_real_time_get
 .text.lsm6dso_fifo_stop_on_wtm_set
                0x00000000080037e8       0x2e ./build/lsm6dso_reg.o
                0x00000000080037e8                lsm6dso_fifo_stop_on_wtm_set
 .text.lsm6dso_fifo_stop_on_wtm_get
                0x0000000008003816       0x1c ./build/lsm6dso_reg.o
                0x0000000008003816                lsm6dso_fifo_stop_on_wtm_get
 .text.lsm6dso_fifo_xl_batch_set
                0x0000000008003832       0x2e ./build/lsm6dso_reg.o
                0x0000000008003832                lsm6dso_fifo_xl_batch_set
 .text.lsm6dso_fifo_xl_batch_get
                0x0000000008003860       0x5e ./build/lsm6dso_reg.o
                0x0000000008003860                lsm6dso_fifo_xl_batch_get
 .text.lsm6dso_fifo_gy_batch_set
                0x00000000080038be       0x2e ./build/lsm6dso_reg.o
                0x00000000080038be                lsm6dso_fifo_gy_batch_set
 .text.lsm6dso_fifo_gy_batch_get
                0x00000000080038ec       0x5c ./build/lsm6dso_reg.o
                0x00000000080038ec                lsm6dso_fifo_gy_batch_get
 .text.lsm6dso_fifo_mode_set
                0x0000000008003948       0x2e ./build/lsm6dso_reg.o
                0x0000000008003948                lsm6dso_fifo_mode_set
 .text.lsm6dso_fifo_mode_get
                0x0000000008003976       0x44 ./build/lsm6dso_reg.o
                0x0000000008003976                lsm6dso_fifo_mode_get
 .text.lsm6dso_fifo_temp_batch_set
                0x00000000080039ba       0x2e ./build/lsm6dso_reg.o
                0x00000000080039ba                lsm6dso_fifo_temp_batch_set
 .text.lsm6dso_fifo_temp_batch_get
                0x00000000080039e8       0x2e ./build/lsm6dso_reg.o
                0x00000000080039e8                lsm6dso_fifo_temp_batch_get
 .text.lsm6dso_fifo_timestamp_decimation_set
                0x0000000008003a16       0x2e ./build/lsm6dso_reg.o
                0x0000000008003a16                lsm6dso_fifo_timestamp_decimation_set
 .text.lsm6dso_fifo_timestamp_decimation_get
                0x0000000008003a44       0x30 ./build/lsm6dso_reg.o
                0x0000000008003a44                lsm6dso_fifo_timestamp_decimation_get
 .text.lsm6dso_fifo_cnt_event_batch_set
                0x0000000008003a74       0x2e ./build/lsm6dso_reg.o
                0x0000000008003a74                lsm6dso_fifo_cnt_event_batch_set
 .text.lsm6dso_fifo_cnt_event_batch_get
                0x0000000008003aa2       0x24 ./build/lsm6dso_reg.o
                0x0000000008003aa2                lsm6dso_fifo_cnt_event_batch_get
 .text.lsm6dso_rst_batch_counter_set
                0x0000000008003ac6       0x2e ./build/lsm6dso_reg.o
                0x0000000008003ac6                lsm6dso_rst_batch_counter_set
 .text.lsm6dso_rst_batch_counter_get
                0x0000000008003af4       0x1c ./build/lsm6dso_reg.o
                0x0000000008003af4                lsm6dso_rst_batch_counter_get
 .text.lsm6dso_batch_counter_threshold_set
                0x0000000008003b10       0x40 ./build/lsm6dso_reg.o
                0x0000000008003b10                lsm6dso_batch_counter_threshold_set
 .text.lsm6dso_batch_counter_threshold_get
                0x0000000008003b50       0x34 ./build/lsm6dso_reg.o
                0x0000000008003b50                lsm6dso_batch_counter_threshold_get
 .text.lsm6dso_fifo_data_level_get
                0x0000000008003b84       0x34 ./build/lsm6dso_reg.o
                0x0000000008003b84                lsm6dso_fifo_data_level_get
 .text.lsm6dso_fifo_status_get
                0x0000000008003bb8        0xa ./build/lsm6dso_reg.o
                0x0000000008003bb8                lsm6dso_fifo_status_get
 .text.lsm6dso_fifo_full_flag_get
                0x0000000008003bc2       0x1c ./build/lsm6dso_reg.o
                0x0000000008003bc2                lsm6dso_fifo_full_flag_get
 .text.lsm6dso_fifo_ovr_flag_get
                0x0000000008003bde       0x1c ./build/lsm6dso_reg.o
                0x0000000008003bde                lsm6dso_fifo_ovr_flag_get
 .text.lsm6dso_fifo_wtm_flag_get
                0x0000000008003bfa       0x1c ./build/lsm6dso_reg.o
                0x0000000008003bfa                lsm6dso_fifo_wtm_flag_get
 .text.lsm6dso_fifo_sensor_tag_get
                0x0000000008003c16       0x90 ./build/lsm6dso_reg.o
                0x0000000008003c16                lsm6dso_fifo_sensor_tag_get
 .text.lsm6dso_fifo_pedo_batch_set
                0x0000000008003ca6       0x42 ./build/lsm6dso_reg.o
                0x0000000008003ca6                lsm6dso_fifo_pedo_batch_set
 .text.lsm6dso_fifo_pedo_batch_get
                0x0000000008003ce8       0x32 ./build/lsm6dso_reg.o
                0x0000000008003ce8                lsm6dso_fifo_pedo_batch_get
 .text.lsm6dso_sh_batch_slave_0_set
                0x0000000008003d1a       0x42 ./build/lsm6dso_reg.o
                0x0000000008003d1a                lsm6dso_sh_batch_slave_0_set
 .text.lsm6dso_sh_batch_slave_0_get
                0x0000000008003d5c       0x32 ./build/lsm6dso_reg.o
                0x0000000008003d5c                lsm6dso_sh_batch_slave_0_get
 .text.lsm6dso_sh_batch_slave_1_set
                0x0000000008003d8e       0x42 ./build/lsm6dso_reg.o
                0x0000000008003d8e                lsm6dso_sh_batch_slave_1_set
 .text.lsm6dso_sh_batch_slave_1_get
                0x0000000008003dd0       0x32 ./build/lsm6dso_reg.o
                0x0000000008003dd0                lsm6dso_sh_batch_slave_1_get
 .text.lsm6dso_sh_batch_slave_2_set
                0x0000000008003e02       0x42 ./build/lsm6dso_reg.o
                0x0000000008003e02                lsm6dso_sh_batch_slave_2_set
 .text.lsm6dso_sh_batch_slave_2_get
                0x0000000008003e44       0x32 ./build/lsm6dso_reg.o
                0x0000000008003e44                lsm6dso_sh_batch_slave_2_get
 .text.lsm6dso_sh_batch_slave_3_set
                0x0000000008003e76       0x42 ./build/lsm6dso_reg.o
                0x0000000008003e76                lsm6dso_sh_batch_slave_3_set
 .text.lsm6dso_sh_batch_slave_3_get
                0x0000000008003eb8       0x32 ./build/lsm6dso_reg.o
                0x0000000008003eb8                lsm6dso_sh_batch_slave_3_get
 .text.lsm6dso_den_mode_set
                0x0000000008003eea       0x2e ./build/lsm6dso_reg.o
                0x0000000008003eea                lsm6dso_den_mode_set
 .text.lsm6dso_den_mode_get
                0x0000000008003f18       0x3c ./build/lsm6dso_reg.o
                0x0000000008003f18                lsm6dso_den_mode_get
 .text.lsm6dso_den_polarity_set
                0x0000000008003f54       0x2e ./build/lsm6dso_reg.o
                0x0000000008003f54                lsm6dso_den_polarity_set
 .text.lsm6dso_den_polarity_get
                0x0000000008003f82       0x24 ./build/lsm6dso_reg.o
                0x0000000008003f82                lsm6dso_den_polarity_get
 .text.lsm6dso_den_enable_set
                0x0000000008003fa6       0x2e ./build/lsm6dso_reg.o
                0x0000000008003fa6                lsm6dso_den_enable_set
 .text.lsm6dso_den_enable_get
                0x0000000008003fd4       0x2a ./build/lsm6dso_reg.o
                0x0000000008003fd4                lsm6dso_den_enable_get
 .text.lsm6dso_den_mark_axis_x_set
                0x0000000008003ffe       0x2e ./build/lsm6dso_reg.o
                0x0000000008003ffe                lsm6dso_den_mark_axis_x_set
 .text.lsm6dso_den_mark_axis_x_get
                0x000000000800402c       0x1c ./build/lsm6dso_reg.o
                0x000000000800402c                lsm6dso_den_mark_axis_x_get
 .text.lsm6dso_den_mark_axis_y_set
                0x0000000008004048       0x2e ./build/lsm6dso_reg.o
                0x0000000008004048                lsm6dso_den_mark_axis_y_set
 .text.lsm6dso_den_mark_axis_y_get
                0x0000000008004076       0x1c ./build/lsm6dso_reg.o
                0x0000000008004076                lsm6dso_den_mark_axis_y_get
 .text.lsm6dso_den_mark_axis_z_set
                0x0000000008004092       0x2e ./build/lsm6dso_reg.o
                0x0000000008004092                lsm6dso_den_mark_axis_z_set
 .text.lsm6dso_den_mark_axis_z_get
                0x00000000080040c0       0x1c ./build/lsm6dso_reg.o
                0x00000000080040c0                lsm6dso_den_mark_axis_z_get
 .text.lsm6dso_pedo_sens_set
                0x00000000080040dc       0xa8 ./build/lsm6dso_reg.o
                0x00000000080040dc                lsm6dso_pedo_sens_set
 .text.lsm6dso_pedo_sens_get
                0x0000000008004184       0x7e ./build/lsm6dso_reg.o
                0x0000000008004184                lsm6dso_pedo_sens_get
 .text.lsm6dso_pedo_step_detect_get
                0x0000000008004202       0x32 ./build/lsm6dso_reg.o
                0x0000000008004202                lsm6dso_pedo_step_detect_get
 .text.lsm6dso_pedo_debounce_steps_set
                0x0000000008004234        0xa ./build/lsm6dso_reg.o
                0x0000000008004234                lsm6dso_pedo_debounce_steps_set
 .text.lsm6dso_pedo_debounce_steps_get
                0x000000000800423e        0xa ./build/lsm6dso_reg.o
                0x000000000800423e                lsm6dso_pedo_debounce_steps_get
 .text.lsm6dso_pedo_steps_period_set
                0x0000000008004248       0x24 ./build/lsm6dso_reg.o
                0x0000000008004248                lsm6dso_pedo_steps_period_set
 .text.lsm6dso_pedo_steps_period_get
                0x000000000800426c       0x24 ./build/lsm6dso_reg.o
                0x000000000800426c                lsm6dso_pedo_steps_period_get
 .text.lsm6dso_pedo_int_mode_set
                0x0000000008004290       0x2e ./build/lsm6dso_reg.o
                0x0000000008004290                lsm6dso_pedo_int_mode_set
 .text.lsm6dso_pedo_int_mode_get
                0x00000000080042be       0x24 ./build/lsm6dso_reg.o
                0x00000000080042be                lsm6dso_pedo_int_mode_get
 .text.lsm6dso_motion_sens_set
                0x00000000080042e2       0x42 ./build/lsm6dso_reg.o
                0x00000000080042e2                lsm6dso_motion_sens_set
 .text.lsm6dso_motion_sens_get
                0x0000000008004324       0x32 ./build/lsm6dso_reg.o
                0x0000000008004324                lsm6dso_motion_sens_get
 .text.lsm6dso_motion_flag_data_ready_get
                0x0000000008004356       0x32 ./build/lsm6dso_reg.o
                0x0000000008004356                lsm6dso_motion_flag_data_ready_get
 .text.lsm6dso_tilt_sens_set
                0x0000000008004388       0x42 ./build/lsm6dso_reg.o
                0x0000000008004388                lsm6dso_tilt_sens_set
 .text.lsm6dso_tilt_sens_get
                0x00000000080043ca       0x32 ./build/lsm6dso_reg.o
                0x00000000080043ca                lsm6dso_tilt_sens_get
 .text.lsm6dso_tilt_flag_data_ready_get
                0x00000000080043fc       0x32 ./build/lsm6dso_reg.o
                0x00000000080043fc                lsm6dso_tilt_flag_data_ready_get
 .text.lsm6dso_mag_sensitivity_set
                0x000000000800442e       0x20 ./build/lsm6dso_reg.o
                0x000000000800442e                lsm6dso_mag_sensitivity_set
 .text.lsm6dso_mag_sensitivity_get
                0x000000000800444e       0x20 ./build/lsm6dso_reg.o
                0x000000000800444e                lsm6dso_mag_sensitivity_get
 .text.lsm6dso_mag_offset_set
                0x000000000800446e       0x50 ./build/lsm6dso_reg.o
                0x000000000800446e                lsm6dso_mag_offset_set
 .text.lsm6dso_mag_offset_get
                0x00000000080044be       0x50 ./build/lsm6dso_reg.o
                0x00000000080044be                lsm6dso_mag_offset_get
 .text.lsm6dso_mag_soft_iron_set
                0x000000000800450e       0xa4 ./build/lsm6dso_reg.o
                0x000000000800450e                lsm6dso_mag_soft_iron_set
 .text.lsm6dso_mag_soft_iron_get
                0x00000000080045b2       0xa4 ./build/lsm6dso_reg.o
                0x00000000080045b2                lsm6dso_mag_soft_iron_get
 .text.lsm6dso_mag_z_orient_set
                0x0000000008004656       0x2a ./build/lsm6dso_reg.o
                0x0000000008004656                lsm6dso_mag_z_orient_set
 .text.lsm6dso_mag_z_orient_get
                0x0000000008004680       0x40 ./build/lsm6dso_reg.o
                0x0000000008004680                lsm6dso_mag_z_orient_get
 .text.lsm6dso_mag_y_orient_set
                0x00000000080046c0       0x2a ./build/lsm6dso_reg.o
                0x00000000080046c0                lsm6dso_mag_y_orient_set
 .text.lsm6dso_mag_y_orient_get
                0x00000000080046ea       0x40 ./build/lsm6dso_reg.o
                0x00000000080046ea                lsm6dso_mag_y_orient_get
 .text.lsm6dso_mag_x_orient_set
                0x000000000800472a       0x2a ./build/lsm6dso_reg.o
                0x000000000800472a                lsm6dso_mag_x_orient_set
 .text.lsm6dso_mag_x_orient_get
                0x0000000008004754       0x40 ./build/lsm6dso_reg.o
                0x0000000008004754                lsm6dso_mag_x_orient_get
 .text.lsm6dso_long_cnt_flag_data_ready_get
                0x0000000008004794       0x32 ./build/lsm6dso_reg.o
                0x0000000008004794                lsm6dso_long_cnt_flag_data_ready_get
 .text.lsm6dso_emb_fsm_en_set
                0x00000000080047c6       0x42 ./build/lsm6dso_reg.o
                0x00000000080047c6                lsm6dso_emb_fsm_en_set
 .text.lsm6dso_emb_fsm_en_get
                0x0000000008004808       0x40 ./build/lsm6dso_reg.o
                0x0000000008004808                lsm6dso_emb_fsm_en_get
 .text.lsm6dso_fsm_enable_set
                0x0000000008004848       0xc4 ./build/lsm6dso_reg.o
                0x0000000008004848                lsm6dso_fsm_enable_set
 .text.lsm6dso_fsm_enable_get
                0x000000000800490c       0x2e ./build/lsm6dso_reg.o
                0x000000000800490c                lsm6dso_fsm_enable_get
 .text.lsm6dso_long_cnt_set
                0x000000000800493a       0x2e ./build/lsm6dso_reg.o
                0x000000000800493a                lsm6dso_long_cnt_set
 .text.lsm6dso_long_cnt_get
                0x0000000008004968       0x2e ./build/lsm6dso_reg.o
                0x0000000008004968                lsm6dso_long_cnt_get
 .text.lsm6dso_long_clr_set
                0x0000000008004996       0x42 ./build/lsm6dso_reg.o
                0x0000000008004996                lsm6dso_long_clr_set
 .text.lsm6dso_long_clr_get
                0x00000000080049d8       0x42 ./build/lsm6dso_reg.o
                0x00000000080049d8                lsm6dso_long_clr_get
 .text.lsm6dso_fsm_out_get
                0x0000000008004a1a       0x2e ./build/lsm6dso_reg.o
                0x0000000008004a1a                lsm6dso_fsm_out_get
 .text.lsm6dso_fsm_data_rate_set
                0x0000000008004a48       0x44 ./build/lsm6dso_reg.o
                0x0000000008004a48                lsm6dso_fsm_data_rate_set
 .text.lsm6dso_fsm_data_rate_get
                0x0000000008004a8c       0x42 ./build/lsm6dso_reg.o
                0x0000000008004a8c                lsm6dso_fsm_data_rate_get
 .text.lsm6dso_xl_data_rate_set
                0x0000000008004ace       0xda ./build/lsm6dso_reg.o
                0x0000000008004ace                lsm6dso_xl_data_rate_set
 .text.lsm6dso_gy_data_rate_set
                0x0000000008004ba8       0xda ./build/lsm6dso_reg.o
                0x0000000008004ba8                lsm6dso_gy_data_rate_set
 .text.lsm6dso_fsm_init_set
                0x0000000008004c82       0x42 ./build/lsm6dso_reg.o
                0x0000000008004c82                lsm6dso_fsm_init_set
 .text.lsm6dso_fsm_init_get
                0x0000000008004cc4       0x32 ./build/lsm6dso_reg.o
                0x0000000008004cc4                lsm6dso_fsm_init_get
 .text.lsm6dso_long_cnt_int_value_set
                0x0000000008004cf6       0x2e ./build/lsm6dso_reg.o
                0x0000000008004cf6                lsm6dso_long_cnt_int_value_set
 .text.lsm6dso_long_cnt_int_value_get
                0x0000000008004d24       0x34 ./build/lsm6dso_reg.o
                0x0000000008004d24                lsm6dso_long_cnt_int_value_get
 .text.lsm6dso_fsm_number_of_programs_set
                0x0000000008004d58       0x18 ./build/lsm6dso_reg.o
                0x0000000008004d58                lsm6dso_fsm_number_of_programs_set
 .text.lsm6dso_fsm_number_of_programs_get
                0x0000000008004d70        0xa ./build/lsm6dso_reg.o
                0x0000000008004d70                lsm6dso_fsm_number_of_programs_get
 .text.lsm6dso_fsm_start_address_set
                0x0000000008004d7a       0x2e ./build/lsm6dso_reg.o
                0x0000000008004d7a                lsm6dso_fsm_start_address_set
 .text.lsm6dso_fsm_start_address_get
                0x0000000008004da8       0x34 ./build/lsm6dso_reg.o
                0x0000000008004da8                lsm6dso_fsm_start_address_get
 .text.lsm6dso_sh_read_data_raw_get
                0x0000000008004ddc       0x30 ./build/lsm6dso_reg.o
                0x0000000008004ddc                lsm6dso_sh_read_data_raw_get
 .text.lsm6dso_sh_slave_connected_set
                0x0000000008004e0c       0x42 ./build/lsm6dso_reg.o
                0x0000000008004e0c                lsm6dso_sh_slave_connected_set
 .text.lsm6dso_sh_slave_connected_get
                0x0000000008004e4e       0x46 ./build/lsm6dso_reg.o
                0x0000000008004e4e                lsm6dso_sh_slave_connected_get
 .text.lsm6dso_sh_master_set
                0x0000000008004e94       0x42 ./build/lsm6dso_reg.o
                0x0000000008004e94                lsm6dso_sh_master_set
 .text.lsm6dso_sh_master_get
                0x0000000008004ed6       0x32 ./build/lsm6dso_reg.o
                0x0000000008004ed6                lsm6dso_sh_master_get
 .text.lsm6dso_sh_pin_mode_set
                0x0000000008004f08       0x42 ./build/lsm6dso_reg.o
                0x0000000008004f08                lsm6dso_sh_pin_mode_set
 .text.lsm6dso_sh_pin_mode_get
                0x0000000008004f4a       0x38 ./build/lsm6dso_reg.o
                0x0000000008004f4a                lsm6dso_sh_pin_mode_get
 .text.lsm6dso_sh_pass_through_set
                0x0000000008004f82       0x42 ./build/lsm6dso_reg.o
                0x0000000008004f82                lsm6dso_sh_pass_through_set
 .text.lsm6dso_sh_pass_through_get
                0x0000000008004fc4       0x32 ./build/lsm6dso_reg.o
                0x0000000008004fc4                lsm6dso_sh_pass_through_get
 .text.lsm6dso_sh_syncro_mode_set
                0x0000000008004ff6       0x42 ./build/lsm6dso_reg.o
                0x0000000008004ff6                lsm6dso_sh_syncro_mode_set
 .text.lsm6dso_sh_syncro_mode_get
                0x0000000008005038       0x38 ./build/lsm6dso_reg.o
                0x0000000008005038                lsm6dso_sh_syncro_mode_get
 .text.lsm6dso_sh_write_mode_set
                0x0000000008005070       0x42 ./build/lsm6dso_reg.o
                0x0000000008005070                lsm6dso_sh_write_mode_set
 .text.lsm6dso_sh_write_mode_get
                0x00000000080050b2       0x38 ./build/lsm6dso_reg.o
                0x00000000080050b2                lsm6dso_sh_write_mode_get
 .text.lsm6dso_sh_reset_set
                0x00000000080050ea       0x5a ./build/lsm6dso_reg.o
                0x00000000080050ea                lsm6dso_sh_reset_set
 .text.lsm6dso_sh_reset_get
                0x0000000008005144       0x32 ./build/lsm6dso_reg.o
                0x0000000008005144                lsm6dso_sh_reset_get
 .text.lsm6dso_sh_data_rate_set
                0x0000000008005176       0x42 ./build/lsm6dso_reg.o
                0x0000000008005176                lsm6dso_sh_data_rate_set
 .text.lsm6dso_sh_data_rate_get
                0x00000000080051b8       0x44 ./build/lsm6dso_reg.o
                0x00000000080051b8                lsm6dso_sh_data_rate_get
 .text.lsm6dso_sh_cfg_write
                0x00000000080051fc       0x4c ./build/lsm6dso_reg.o
                0x00000000080051fc                lsm6dso_sh_cfg_write
 .text.lsm6dso_sh_slv0_cfg_read
                0x0000000008005248       0x6c ./build/lsm6dso_reg.o
                0x0000000008005248                lsm6dso_sh_slv0_cfg_read
 .text.lsm6dso_sh_slv1_cfg_read
                0x00000000080052b4       0x6c ./build/lsm6dso_reg.o
                0x00000000080052b4                lsm6dso_sh_slv1_cfg_read
 .text.lsm6dso_sh_slv2_cfg_read
                0x0000000008005320       0x6c ./build/lsm6dso_reg.o
                0x0000000008005320                lsm6dso_sh_slv2_cfg_read
 .text.lsm6dso_sh_slv3_cfg_read
                0x000000000800538c       0x6c ./build/lsm6dso_reg.o
                0x000000000800538c                lsm6dso_sh_slv3_cfg_read
 .text.lsm6dso_sh_status_get
                0x00000000080053f8       0x2e ./build/lsm6dso_reg.o
                0x00000000080053f8                lsm6dso_sh_status_get
 .text.HAL_I2CEx_ConfigAnalogFilter
                0x0000000008005426       0x4c ./build/stm32l4xx_hal_i2c_ex.o
                0x0000000008005426                HAL_I2CEx_ConfigAnalogFilter
 .text.HAL_I2CEx_ConfigDigitalFilter
                0x0000000008005472       0x4a ./build/stm32l4xx_hal_i2c_ex.o
                0x0000000008005472                HAL_I2CEx_ConfigDigitalFilter
 .text.HAL_I2CEx_EnableWakeUp
                0x00000000080054bc       0x44 ./build/stm32l4xx_hal_i2c_ex.o
                0x00000000080054bc                HAL_I2CEx_EnableWakeUp
 .text.HAL_I2CEx_DisableWakeUp
                0x0000000008005500       0x44 ./build/stm32l4xx_hal_i2c_ex.o
                0x0000000008005500                HAL_I2CEx_DisableWakeUp
 .text.HAL_I2CEx_EnableFastModePlus
                0x0000000008005544       0x2c ./build/stm32l4xx_hal_i2c_ex.o
                0x0000000008005544                HAL_I2CEx_EnableFastModePlus
 .text.HAL_I2CEx_DisableFastModePlus
                0x0000000008005570       0x2c ./build/stm32l4xx_hal_i2c_ex.o
                0x0000000008005570                HAL_I2CEx_DisableFastModePlus
 .text.HAL_MspInit
                0x000000000800559c        0x2 ./build/stm32l4xx_hal.o
                0x000000000800559c                HAL_MspInit
 .text.HAL_MspDeInit
                0x000000000800559e        0x2 ./build/stm32l4xx_hal.o
                0x000000000800559e                HAL_MspDeInit
 .text.HAL_DeInit
                0x00000000080055a0       0x2c ./build/stm32l4xx_hal.o
                0x00000000080055a0                HAL_DeInit
 .text.HAL_InitTick
                0x00000000080055cc       0x4c ./build/stm32l4xx_hal.o
                0x00000000080055cc                HAL_InitTick
 .text.HAL_Init
                0x0000000008005618       0x1e ./build/stm32l4xx_hal.o
                0x0000000008005618                HAL_Init
 *fill*         0x0000000008005636        0x2 
 .text.HAL_IncTick
                0x0000000008005638       0x18 ./build/stm32l4xx_hal.o
                0x0000000008005638                HAL_IncTick
 .text.HAL_GetTick
                0x0000000008005650        0xc ./build/stm32l4xx_hal.o
                0x0000000008005650                HAL_GetTick
 .text.HAL_GetTickPrio
                0x000000000800565c        0xc ./build/stm32l4xx_hal.o
                0x000000000800565c                HAL_GetTickPrio
 .text.HAL_SetTickFreq
                0x0000000008005668       0x28 ./build/stm32l4xx_hal.o
                0x0000000008005668                HAL_SetTickFreq
 .text.HAL_GetTickFreq
                0x0000000008005690        0xc ./build/stm32l4xx_hal.o
                0x0000000008005690                HAL_GetTickFreq
 .text.HAL_Delay
                0x000000000800569c       0x28 ./build/stm32l4xx_hal.o
                0x000000000800569c                HAL_Delay
 .text.HAL_SuspendTick
                0x00000000080056c4       0x10 ./build/stm32l4xx_hal.o
                0x00000000080056c4                HAL_SuspendTick
 .text.HAL_ResumeTick
                0x00000000080056d4       0x10 ./build/stm32l4xx_hal.o
                0x00000000080056d4                HAL_ResumeTick
 .text.HAL_GetHalVersion
                0x00000000080056e4        0x6 ./build/stm32l4xx_hal.o
                0x00000000080056e4                HAL_GetHalVersion
 *fill*         0x00000000080056ea        0x2 
 .text.HAL_GetREVID
                0x00000000080056ec        0xc ./build/stm32l4xx_hal.o
                0x00000000080056ec                HAL_GetREVID
 .text.HAL_GetDEVID
                0x00000000080056f8       0x10 ./build/stm32l4xx_hal.o
                0x00000000080056f8                HAL_GetDEVID
 .text.HAL_GetUIDw0
                0x0000000008005708        0xc ./build/stm32l4xx_hal.o
                0x0000000008005708                HAL_GetUIDw0
 .text.HAL_GetUIDw1
                0x0000000008005714        0xc ./build/stm32l4xx_hal.o
                0x0000000008005714                HAL_GetUIDw1
 .text.HAL_GetUIDw2
                0x0000000008005720        0xc ./build/stm32l4xx_hal.o
                0x0000000008005720                HAL_GetUIDw2
 .text.HAL_DBGMCU_EnableDBGSleepMode
                0x000000000800572c       0x10 ./build/stm32l4xx_hal.o
                0x000000000800572c                HAL_DBGMCU_EnableDBGSleepMode
 .text.HAL_DBGMCU_DisableDBGSleepMode
                0x000000000800573c       0x10 ./build/stm32l4xx_hal.o
                0x000000000800573c                HAL_DBGMCU_DisableDBGSleepMode
 .text.HAL_DBGMCU_EnableDBGStopMode
                0x000000000800574c       0x10 ./build/stm32l4xx_hal.o
                0x000000000800574c                HAL_DBGMCU_EnableDBGStopMode
 .text.HAL_DBGMCU_DisableDBGStopMode
                0x000000000800575c       0x10 ./build/stm32l4xx_hal.o
                0x000000000800575c                HAL_DBGMCU_DisableDBGStopMode
 .text.HAL_DBGMCU_EnableDBGStandbyMode
                0x000000000800576c       0x10 ./build/stm32l4xx_hal.o
                0x000000000800576c                HAL_DBGMCU_EnableDBGStandbyMode
 .text.HAL_DBGMCU_DisableDBGStandbyMode
                0x000000000800577c       0x10 ./build/stm32l4xx_hal.o
                0x000000000800577c                HAL_DBGMCU_DisableDBGStandbyMode
 .text.HAL_SYSCFG_SRAM2Erase
                0x000000000800578c       0x1c ./build/stm32l4xx_hal.o
                0x000000000800578c                HAL_SYSCFG_SRAM2Erase
 .text.HAL_SYSCFG_EnableMemorySwappingBank
                0x00000000080057a8        0xc ./build/stm32l4xx_hal.o
                0x00000000080057a8                HAL_SYSCFG_EnableMemorySwappingBank
 .text.HAL_SYSCFG_DisableMemorySwappingBank
                0x00000000080057b4        0xc ./build/stm32l4xx_hal.o
                0x00000000080057b4                HAL_SYSCFG_DisableMemorySwappingBank
 .text.HAL_SYSCFG_VREFBUF_VoltageScalingConfig
                0x00000000080057c0       0x14 ./build/stm32l4xx_hal.o
                0x00000000080057c0                HAL_SYSCFG_VREFBUF_VoltageScalingConfig
 .text.HAL_SYSCFG_VREFBUF_HighImpedanceConfig
                0x00000000080057d4       0x14 ./build/stm32l4xx_hal.o
                0x00000000080057d4                HAL_SYSCFG_VREFBUF_HighImpedanceConfig
 .text.HAL_SYSCFG_VREFBUF_TrimmingConfig
                0x00000000080057e8       0x14 ./build/stm32l4xx_hal.o
                0x00000000080057e8                HAL_SYSCFG_VREFBUF_TrimmingConfig
 .text.HAL_SYSCFG_EnableVREFBUF
                0x00000000080057fc       0x30 ./build/stm32l4xx_hal.o
                0x00000000080057fc                HAL_SYSCFG_EnableVREFBUF
 .text.HAL_SYSCFG_DisableVREFBUF
                0x000000000800582c       0x10 ./build/stm32l4xx_hal.o
                0x000000000800582c                HAL_SYSCFG_DisableVREFBUF
 .text.HAL_SYSCFG_EnableIOAnalogSwitchBooster
                0x000000000800583c       0x10 ./build/stm32l4xx_hal.o
                0x000000000800583c                HAL_SYSCFG_EnableIOAnalogSwitchBooster
 .text.HAL_SYSCFG_DisableIOAnalogSwitchBooster
                0x000000000800584c       0x10 ./build/stm32l4xx_hal.o
                0x000000000800584c                HAL_SYSCFG_DisableIOAnalogSwitchBooster
 .text.HAL_NVIC_SetPriorityGrouping
                0x000000000800585c       0x24 ./build/stm32l4xx_hal_cortex.o
                0x000000000800585c                HAL_NVIC_SetPriorityGrouping
 .text.HAL_NVIC_SetPriority
                0x0000000008005880       0x64 ./build/stm32l4xx_hal_cortex.o
                0x0000000008005880                HAL_NVIC_SetPriority
 .text.HAL_NVIC_EnableIRQ
                0x00000000080058e4       0x1c ./build/stm32l4xx_hal_cortex.o
                0x00000000080058e4                HAL_NVIC_EnableIRQ
 .text.HAL_NVIC_DisableIRQ
                0x0000000008005900       0x28 ./build/stm32l4xx_hal_cortex.o
                0x0000000008005900                HAL_NVIC_DisableIRQ
 .text.HAL_NVIC_SystemReset
                0x0000000008005928       0x24 ./build/stm32l4xx_hal_cortex.o
                0x0000000008005928                HAL_NVIC_SystemReset
 .text.HAL_SYSTICK_Config
                0x000000000800594c       0x2c ./build/stm32l4xx_hal_cortex.o
                0x000000000800594c                HAL_SYSTICK_Config
 .text.HAL_NVIC_GetPriorityGrouping
                0x0000000008005978       0x10 ./build/stm32l4xx_hal_cortex.o
                0x0000000008005978                HAL_NVIC_GetPriorityGrouping
 .text.HAL_NVIC_GetPriority
                0x0000000008005988       0x5c ./build/stm32l4xx_hal_cortex.o
                0x0000000008005988                HAL_NVIC_GetPriority
 .text.HAL_NVIC_SetPendingIRQ
                0x00000000080059e4       0x20 ./build/stm32l4xx_hal_cortex.o
                0x00000000080059e4                HAL_NVIC_SetPendingIRQ
 .text.HAL_NVIC_GetPendingIRQ
                0x0000000008005a04       0x24 ./build/stm32l4xx_hal_cortex.o
                0x0000000008005a04                HAL_NVIC_GetPendingIRQ
 .text.HAL_NVIC_ClearPendingIRQ
                0x0000000008005a28       0x20 ./build/stm32l4xx_hal_cortex.o
                0x0000000008005a28                HAL_NVIC_ClearPendingIRQ
 .text.HAL_NVIC_GetActive
                0x0000000008005a48       0x24 ./build/stm32l4xx_hal_cortex.o
                0x0000000008005a48                HAL_NVIC_GetActive
 .text.HAL_SYSTICK_CLKSourceConfig
                0x0000000008005a6c       0x18 ./build/stm32l4xx_hal_cortex.o
                0x0000000008005a6c                HAL_SYSTICK_CLKSourceConfig
 .text.HAL_SYSTICK_Callback
                0x0000000008005a84        0x2 ./build/stm32l4xx_hal_cortex.o
                0x0000000008005a84                HAL_SYSTICK_Callback
 .text.HAL_SYSTICK_IRQHandler
                0x0000000008005a86        0x8 ./build/stm32l4xx_hal_cortex.o
                0x0000000008005a86                HAL_SYSTICK_IRQHandler
 *fill*         0x0000000008005a8e        0x2 
 .text.HAL_MPU_Disable
                0x0000000008005a90       0x20 ./build/stm32l4xx_hal_cortex.o
                0x0000000008005a90                HAL_MPU_Disable
 .text.HAL_MPU_Enable
                0x0000000008005ab0       0x24 ./build/stm32l4xx_hal_cortex.o
                0x0000000008005ab0                HAL_MPU_Enable
 .text.HAL_MPU_ConfigRegion
                0x0000000008005ad4       0x50 ./build/stm32l4xx_hal_cortex.o
                0x0000000008005ad4                HAL_MPU_ConfigRegion
 .text.RCC_SetFlashLatencyFromMSIRange
                0x0000000008005b24       0x84 ./build/stm32l4xx_hal_rcc.o
 .text.HAL_RCC_DeInit
                0x0000000008005ba8       0xe0 ./build/stm32l4xx_hal_rcc.o
                0x0000000008005ba8                HAL_RCC_DeInit
 .text.HAL_RCC_MCOConfig
                0x0000000008005c88       0x50 ./build/stm32l4xx_hal_rcc.o
                0x0000000008005c88                HAL_RCC_MCOConfig
 .text.HAL_RCC_GetSysClockFreq
                0x0000000008005cd8       0x9c ./build/stm32l4xx_hal_rcc.o
                0x0000000008005cd8                HAL_RCC_GetSysClockFreq
 .text.HAL_RCC_OscConfig
                0x0000000008005d74      0x4c4 ./build/stm32l4xx_hal_rcc.o
                0x0000000008005d74                HAL_RCC_OscConfig
 .text.HAL_RCC_ClockConfig
                0x0000000008006238      0x128 ./build/stm32l4xx_hal_rcc.o
                0x0000000008006238                HAL_RCC_ClockConfig
 .text.HAL_RCC_GetHCLKFreq
                0x0000000008006360        0xc ./build/stm32l4xx_hal_rcc.o
                0x0000000008006360                HAL_RCC_GetHCLKFreq
 .text.HAL_RCC_GetPCLK1Freq
                0x000000000800636c       0x24 ./build/stm32l4xx_hal_rcc.o
                0x000000000800636c                HAL_RCC_GetPCLK1Freq
 .text.HAL_RCC_GetPCLK2Freq
                0x0000000008006390       0x24 ./build/stm32l4xx_hal_rcc.o
                0x0000000008006390                HAL_RCC_GetPCLK2Freq
 .text.HAL_RCC_GetOscConfig
                0x00000000080063b4       0xc4 ./build/stm32l4xx_hal_rcc.o
                0x00000000080063b4                HAL_RCC_GetOscConfig
 .text.HAL_RCC_GetClockConfig
                0x0000000008006478       0x3c ./build/stm32l4xx_hal_rcc.o
                0x0000000008006478                HAL_RCC_GetClockConfig
 .text.HAL_RCC_EnableCSS
                0x00000000080064b4       0x10 ./build/stm32l4xx_hal_rcc.o
                0x00000000080064b4                HAL_RCC_EnableCSS
 .text.HAL_RCC_CSSCallback
                0x00000000080064c4        0x2 ./build/stm32l4xx_hal_rcc.o
                0x00000000080064c4                HAL_RCC_CSSCallback
 *fill*         0x00000000080064c6        0x2 
 .text.HAL_RCC_NMI_IRQHandler
                0x00000000080064c8       0x1c ./build/stm32l4xx_hal_rcc.o
                0x00000000080064c8                HAL_RCC_NMI_IRQHandler
 .text.HAL_PWREx_GetVoltageRange
                0x00000000080064e4       0x10 ./build/stm32l4xx_hal_pwr_ex.o
                0x00000000080064e4                HAL_PWREx_GetVoltageRange
 .text.HAL_PWREx_ControlVoltageScaling
                0x00000000080064f4       0x6c ./build/stm32l4xx_hal_pwr_ex.o
                0x00000000080064f4                HAL_PWREx_ControlVoltageScaling
 .text.HAL_PWREx_EnableBatteryCharging
                0x0000000008006560       0x1c ./build/stm32l4xx_hal_pwr_ex.o
                0x0000000008006560                HAL_PWREx_EnableBatteryCharging
 .text.HAL_PWREx_DisableBatteryCharging
                0x000000000800657c       0x10 ./build/stm32l4xx_hal_pwr_ex.o
                0x000000000800657c                HAL_PWREx_DisableBatteryCharging
 .text.HAL_PWREx_EnableVddUSB
                0x000000000800658c       0x10 ./build/stm32l4xx_hal_pwr_ex.o
                0x000000000800658c                HAL_PWREx_EnableVddUSB
 .text.HAL_PWREx_DisableVddUSB
                0x000000000800659c       0x10 ./build/stm32l4xx_hal_pwr_ex.o
                0x000000000800659c                HAL_PWREx_DisableVddUSB
 .text.HAL_PWREx_EnableVddIO2
                0x00000000080065ac       0x10 ./build/stm32l4xx_hal_pwr_ex.o
                0x00000000080065ac                HAL_PWREx_EnableVddIO2
 .text.HAL_PWREx_DisableVddIO2
                0x00000000080065bc       0x10 ./build/stm32l4xx_hal_pwr_ex.o
                0x00000000080065bc                HAL_PWREx_DisableVddIO2
 .text.HAL_PWREx_EnableInternalWakeUpLine
                0x00000000080065cc       0x10 ./build/stm32l4xx_hal_pwr_ex.o
                0x00000000080065cc                HAL_PWREx_EnableInternalWakeUpLine
 .text.HAL_PWREx_DisableInternalWakeUpLine
                0x00000000080065dc       0x10 ./build/stm32l4xx_hal_pwr_ex.o
                0x00000000080065dc                HAL_PWREx_DisableInternalWakeUpLine
 .text.HAL_PWREx_EnableGPIOPullUp
                0x00000000080065ec       0xbc ./build/stm32l4xx_hal_pwr_ex.o
                0x00000000080065ec                HAL_PWREx_EnableGPIOPullUp
 .text.HAL_PWREx_DisableGPIOPullUp
                0x00000000080066a8       0x84 ./build/stm32l4xx_hal_pwr_ex.o
                0x00000000080066a8                HAL_PWREx_DisableGPIOPullUp
 .text.HAL_PWREx_EnableGPIOPullDown
                0x000000000800672c       0xbc ./build/stm32l4xx_hal_pwr_ex.o
                0x000000000800672c                HAL_PWREx_EnableGPIOPullDown
 .text.HAL_PWREx_DisableGPIOPullDown
                0x00000000080067e8       0x88 ./build/stm32l4xx_hal_pwr_ex.o
                0x00000000080067e8                HAL_PWREx_DisableGPIOPullDown
 .text.HAL_PWREx_EnablePullUpPullDownConfig
                0x0000000008006870       0x10 ./build/stm32l4xx_hal_pwr_ex.o
                0x0000000008006870                HAL_PWREx_EnablePullUpPullDownConfig
 .text.HAL_PWREx_DisablePullUpPullDownConfig
                0x0000000008006880       0x10 ./build/stm32l4xx_hal_pwr_ex.o
                0x0000000008006880                HAL_PWREx_DisablePullUpPullDownConfig
 .text.HAL_PWREx_EnableSRAM2ContentRetention
                0x0000000008006890       0x10 ./build/stm32l4xx_hal_pwr_ex.o
                0x0000000008006890                HAL_PWREx_EnableSRAM2ContentRetention
 .text.HAL_PWREx_DisableSRAM2ContentRetention
                0x00000000080068a0       0x10 ./build/stm32l4xx_hal_pwr_ex.o
                0x00000000080068a0                HAL_PWREx_DisableSRAM2ContentRetention
 .text.HAL_PWREx_EnablePVM1
                0x00000000080068b0       0x10 ./build/stm32l4xx_hal_pwr_ex.o
                0x00000000080068b0                HAL_PWREx_EnablePVM1
 .text.HAL_PWREx_DisablePVM1
                0x00000000080068c0       0x10 ./build/stm32l4xx_hal_pwr_ex.o
                0x00000000080068c0                HAL_PWREx_DisablePVM1
 .text.HAL_PWREx_EnablePVM2
                0x00000000080068d0       0x10 ./build/stm32l4xx_hal_pwr_ex.o
                0x00000000080068d0                HAL_PWREx_EnablePVM2
 .text.HAL_PWREx_DisablePVM2
                0x00000000080068e0       0x10 ./build/stm32l4xx_hal_pwr_ex.o
                0x00000000080068e0                HAL_PWREx_DisablePVM2
 .text.HAL_PWREx_EnablePVM3
                0x00000000080068f0       0x10 ./build/stm32l4xx_hal_pwr_ex.o
                0x00000000080068f0                HAL_PWREx_EnablePVM3
 .text.HAL_PWREx_DisablePVM3
                0x0000000008006900       0x10 ./build/stm32l4xx_hal_pwr_ex.o
                0x0000000008006900                HAL_PWREx_DisablePVM3
 .text.HAL_PWREx_EnablePVM4
                0x0000000008006910       0x10 ./build/stm32l4xx_hal_pwr_ex.o
                0x0000000008006910                HAL_PWREx_EnablePVM4
 .text.HAL_PWREx_DisablePVM4
                0x0000000008006920       0x10 ./build/stm32l4xx_hal_pwr_ex.o
                0x0000000008006920                HAL_PWREx_DisablePVM4
 .text.HAL_PWREx_ConfigPVM
                0x0000000008006930      0x174 ./build/stm32l4xx_hal_pwr_ex.o
                0x0000000008006930                HAL_PWREx_ConfigPVM
 .text.HAL_PWREx_EnableLowPowerRunMode
                0x0000000008006aa4       0x10 ./build/stm32l4xx_hal_pwr_ex.o
                0x0000000008006aa4                HAL_PWREx_EnableLowPowerRunMode
 .text.HAL_PWREx_DisableLowPowerRunMode
                0x0000000008006ab4       0x44 ./build/stm32l4xx_hal_pwr_ex.o
                0x0000000008006ab4                HAL_PWREx_DisableLowPowerRunMode
 .text.HAL_PWREx_EnterSTOP0Mode
                0x0000000008006af8       0x34 ./build/stm32l4xx_hal_pwr_ex.o
                0x0000000008006af8                HAL_PWREx_EnterSTOP0Mode
 .text.HAL_PWREx_EnterSTOP1Mode
                0x0000000008006b2c       0x38 ./build/stm32l4xx_hal_pwr_ex.o
                0x0000000008006b2c                HAL_PWREx_EnterSTOP1Mode
 .text.HAL_PWREx_EnterSTOP2Mode
                0x0000000008006b64       0x38 ./build/stm32l4xx_hal_pwr_ex.o
                0x0000000008006b64                HAL_PWREx_EnterSTOP2Mode
 .text.HAL_PWREx_EnterSHUTDOWNMode
                0x0000000008006b9c       0x24 ./build/stm32l4xx_hal_pwr_ex.o
                0x0000000008006b9c                HAL_PWREx_EnterSHUTDOWNMode
 .text.HAL_PWREx_PVM1Callback
                0x0000000008006bc0        0x2 ./build/stm32l4xx_hal_pwr_ex.o
                0x0000000008006bc0                HAL_PWREx_PVM1Callback
 .text.HAL_PWREx_PVM2Callback
                0x0000000008006bc2        0x2 ./build/stm32l4xx_hal_pwr_ex.o
                0x0000000008006bc2                HAL_PWREx_PVM2Callback
 .text.HAL_PWREx_PVM3Callback
                0x0000000008006bc4        0x2 ./build/stm32l4xx_hal_pwr_ex.o
                0x0000000008006bc4                HAL_PWREx_PVM3Callback
 .text.HAL_PWREx_PVM4Callback
                0x0000000008006bc6        0x2 ./build/stm32l4xx_hal_pwr_ex.o
                0x0000000008006bc6                HAL_PWREx_PVM4Callback
 .text.HAL_PWREx_PVD_PVM_IRQHandler
                0x0000000008006bc8       0x54 ./build/stm32l4xx_hal_pwr_ex.o
                0x0000000008006bc8                HAL_PWREx_PVD_PVM_IRQHandler
 .text.HAL_GPIO_Init
                0x0000000008006c1c      0x1bc ./build/stm32l4xx_hal_gpio.o
                0x0000000008006c1c                HAL_GPIO_Init
 .text.HAL_GPIO_DeInit
                0x0000000008006dd8      0x11c ./build/stm32l4xx_hal_gpio.o
                0x0000000008006dd8                HAL_GPIO_DeInit
 .text.HAL_GPIO_ReadPin
                0x0000000008006ef4        0xc ./build/stm32l4xx_hal_gpio.o
                0x0000000008006ef4                HAL_GPIO_ReadPin
 .text.HAL_GPIO_WritePin
                0x0000000008006f00        0xa ./build/stm32l4xx_hal_gpio.o
                0x0000000008006f00                HAL_GPIO_WritePin
 .text.HAL_GPIO_TogglePin
                0x0000000008006f0a        0xc ./build/stm32l4xx_hal_gpio.o
                0x0000000008006f0a                HAL_GPIO_TogglePin
 .text.HAL_GPIO_LockPin
                0x0000000008006f16       0x2a ./build/stm32l4xx_hal_gpio.o
                0x0000000008006f16                HAL_GPIO_LockPin
 .text.HAL_GPIO_EXTI_Callback
                0x0000000008006f40        0x2 ./build/stm32l4xx_hal_gpio.o
                0x0000000008006f40                HAL_GPIO_EXTI_Callback
 *fill*         0x0000000008006f42        0x2 
 .text.HAL_GPIO_EXTI_IRQHandler
                0x0000000008006f44       0x18 ./build/stm32l4xx_hal_gpio.o
                0x0000000008006f44                HAL_GPIO_EXTI_IRQHandler
 .text.HAL_PWR_DeInit
                0x0000000008006f5c       0x18 ./build/stm32l4xx_hal_pwr.o
                0x0000000008006f5c                HAL_PWR_DeInit
 .text.HAL_PWR_EnableBkUpAccess
                0x0000000008006f74       0x10 ./build/stm32l4xx_hal_pwr.o
                0x0000000008006f74                HAL_PWR_EnableBkUpAccess
 .text.HAL_PWR_DisableBkUpAccess
                0x0000000008006f84       0x10 ./build/stm32l4xx_hal_pwr.o
                0x0000000008006f84                HAL_PWR_DisableBkUpAccess
 .text.HAL_PWR_ConfigPVD
                0x0000000008006f94       0x70 ./build/stm32l4xx_hal_pwr.o
                0x0000000008006f94                HAL_PWR_ConfigPVD
 .text.HAL_PWR_EnablePVD
                0x0000000008007004       0x10 ./build/stm32l4xx_hal_pwr.o
                0x0000000008007004                HAL_PWR_EnablePVD
 .text.HAL_PWR_DisablePVD
                0x0000000008007014       0x10 ./build/stm32l4xx_hal_pwr.o
                0x0000000008007014                HAL_PWR_DisablePVD
 .text.HAL_PWR_EnableWakeUpPin
                0x0000000008007024       0x20 ./build/stm32l4xx_hal_pwr.o
                0x0000000008007024                HAL_PWR_EnableWakeUpPin
 .text.HAL_PWR_DisableWakeUpPin
                0x0000000008007044       0x14 ./build/stm32l4xx_hal_pwr.o
                0x0000000008007044                HAL_PWR_DisableWakeUpPin
 .text.HAL_PWR_EnterSLEEPMode
                0x0000000008007058       0x40 ./build/stm32l4xx_hal_pwr.o
                0x0000000008007058                HAL_PWR_EnterSLEEPMode
 .text.HAL_PWR_EnterSTOPMode
                0x0000000008007098       0x12 ./build/stm32l4xx_hal_pwr.o
                0x0000000008007098                HAL_PWR_EnterSTOPMode
 *fill*         0x00000000080070aa        0x2 
 .text.HAL_PWR_EnterSTANDBYMode
                0x00000000080070ac       0x24 ./build/stm32l4xx_hal_pwr.o
                0x00000000080070ac                HAL_PWR_EnterSTANDBYMode
 .text.HAL_PWR_EnableSleepOnExit
                0x00000000080070d0       0x10 ./build/stm32l4xx_hal_pwr.o
                0x00000000080070d0                HAL_PWR_EnableSleepOnExit
 .text.HAL_PWR_DisableSleepOnExit
                0x00000000080070e0       0x10 ./build/stm32l4xx_hal_pwr.o
                0x00000000080070e0                HAL_PWR_DisableSleepOnExit
 .text.HAL_PWR_EnableSEVOnPend
                0x00000000080070f0       0x10 ./build/stm32l4xx_hal_pwr.o
                0x00000000080070f0                HAL_PWR_EnableSEVOnPend
 .text.HAL_PWR_DisableSEVOnPend
                0x0000000008007100       0x10 ./build/stm32l4xx_hal_pwr.o
                0x0000000008007100                HAL_PWR_DisableSEVOnPend
 .text.HAL_PWR_PVDCallback
                0x0000000008007110        0x2 ./build/stm32l4xx_hal_pwr.o
                0x0000000008007110                HAL_PWR_PVDCallback
 .text.UART_EndRxTransfer
                0x0000000008007112       0x1c ./build/stm32l4xx_hal_uart.o
 .text.UART_TxISR_8BIT
                0x000000000800712e       0x3a ./build/stm32l4xx_hal_uart.o
 .text.UART_TxISR_16BIT
                0x0000000008007168       0x3e ./build/stm32l4xx_hal_uart.o
 .text.HAL_UART_MspInit
                0x00000000080071a6        0x2 ./build/stm32l4xx_hal_uart.o
                0x00000000080071a6                HAL_UART_MspInit
 .text.HAL_UART_MspDeInit
                0x00000000080071a8        0x2 ./build/stm32l4xx_hal_uart.o
                0x00000000080071a8                HAL_UART_MspDeInit
 .text.HAL_UART_DeInit
                0x00000000080071aa       0x32 ./build/stm32l4xx_hal_uart.o
                0x00000000080071aa                HAL_UART_DeInit
 .text.HAL_UART_Transmit_IT
                0x00000000080071dc       0x64 ./build/stm32l4xx_hal_uart.o
                0x00000000080071dc                HAL_UART_Transmit_IT
 .text.HAL_UART_Receive_IT
                0x0000000008007240       0xb0 ./build/stm32l4xx_hal_uart.o
                0x0000000008007240                HAL_UART_Receive_IT
 .text.HAL_UART_Transmit_DMA
                0x00000000080072f0       0x8c ./build/stm32l4xx_hal_uart.o
                0x00000000080072f0                HAL_UART_Transmit_DMA
 .text.HAL_UART_Receive_DMA
                0x000000000800737c       0x90 ./build/stm32l4xx_hal_uart.o
                0x000000000800737c                HAL_UART_Receive_DMA
 .text.HAL_UART_DMAPause
                0x000000000800740c       0x58 ./build/stm32l4xx_hal_uart.o
                0x000000000800740c                HAL_UART_DMAPause
 .text.HAL_UART_DMAResume
                0x0000000008007464       0x50 ./build/stm32l4xx_hal_uart.o
                0x0000000008007464                HAL_UART_DMAResume
 .text.HAL_UART_DMAStop
                0x00000000080074b4       0x7a ./build/stm32l4xx_hal_uart.o
                0x00000000080074b4                HAL_UART_DMAStop
 .text.HAL_UART_Abort
                0x000000000800752e       0x90 ./build/stm32l4xx_hal_uart.o
                0x000000000800752e                HAL_UART_Abort
 .text.HAL_UART_AbortTransmit
                0x00000000080075be       0x48 ./build/stm32l4xx_hal_uart.o
                0x00000000080075be                HAL_UART_AbortTransmit
 .text.HAL_UART_AbortReceive
                0x0000000008007606       0x60 ./build/stm32l4xx_hal_uart.o
                0x0000000008007606                HAL_UART_AbortReceive
 .text.HAL_UART_TxCpltCallback
                0x0000000008007666        0x2 ./build/stm32l4xx_hal_uart.o
                0x0000000008007666                HAL_UART_TxCpltCallback
 .text.UART_DMATransmitCplt
                0x0000000008007668       0x2e ./build/stm32l4xx_hal_uart.o
 .text.HAL_UART_TxHalfCpltCallback
                0x0000000008007696        0x2 ./build/stm32l4xx_hal_uart.o
                0x0000000008007696                HAL_UART_TxHalfCpltCallback
 .text.UART_DMATxHalfCplt
                0x0000000008007698        0xa ./build/stm32l4xx_hal_uart.o
 .text.HAL_UART_RxCpltCallback
                0x00000000080076a2        0x2 ./build/stm32l4xx_hal_uart.o
                0x00000000080076a2                HAL_UART_RxCpltCallback
 .text.UART_RxISR_8BIT
                0x00000000080076a4       0x5a ./build/stm32l4xx_hal_uart.o
 .text.UART_RxISR_16BIT
                0x00000000080076fe       0x56 ./build/stm32l4xx_hal_uart.o
 .text.UART_DMAReceiveCplt
                0x0000000008007754       0x38 ./build/stm32l4xx_hal_uart.o
 .text.HAL_UART_RxHalfCpltCallback
                0x000000000800778c        0x2 ./build/stm32l4xx_hal_uart.o
                0x000000000800778c                HAL_UART_RxHalfCpltCallback
 .text.UART_DMARxHalfCplt
                0x000000000800778e        0xa ./build/stm32l4xx_hal_uart.o
 .text.HAL_UART_ErrorCallback
                0x0000000008007798        0x2 ./build/stm32l4xx_hal_uart.o
                0x0000000008007798                HAL_UART_ErrorCallback
 .text.UART_DMAError
                0x000000000800779a       0x48 ./build/stm32l4xx_hal_uart.o
 *fill*         0x00000000080077e2        0x2 
 .text.HAL_UART_IRQHandler
                0x00000000080077e4      0x12c ./build/stm32l4xx_hal_uart.o
                0x00000000080077e4                HAL_UART_IRQHandler
 .text.UART_DMAAbortOnError
                0x0000000008007910       0x14 ./build/stm32l4xx_hal_uart.o
 .text.HAL_UART_AbortCpltCallback
                0x0000000008007924        0x2 ./build/stm32l4xx_hal_uart.o
                0x0000000008007924                HAL_UART_AbortCpltCallback
 *fill*         0x0000000008007926        0x2 
 .text.HAL_UART_Abort_IT
                0x0000000008007928       0xbc ./build/stm32l4xx_hal_uart.o
                0x0000000008007928                HAL_UART_Abort_IT
 .text.UART_DMARxAbortCallback
                0x00000000080079e4       0x38 ./build/stm32l4xx_hal_uart.o
 .text.UART_DMATxAbortCallback
                0x0000000008007a1c       0x2e ./build/stm32l4xx_hal_uart.o
 .text.HAL_UART_AbortTransmitCpltCallback
                0x0000000008007a4a        0x2 ./build/stm32l4xx_hal_uart.o
                0x0000000008007a4a                HAL_UART_AbortTransmitCpltCallback
 .text.HAL_UART_AbortTransmit_IT
                0x0000000008007a4c       0x4c ./build/stm32l4xx_hal_uart.o
                0x0000000008007a4c                HAL_UART_AbortTransmit_IT
 .text.UART_DMATxOnlyAbortCallback
                0x0000000008007a98       0x14 ./build/stm32l4xx_hal_uart.o
 .text.HAL_UART_AbortReceiveCpltCallback
                0x0000000008007aac        0x2 ./build/stm32l4xx_hal_uart.o
                0x0000000008007aac                HAL_UART_AbortReceiveCpltCallback
 *fill*         0x0000000008007aae        0x2 
 .text.HAL_UART_AbortReceive_IT
                0x0000000008007ab0       0x70 ./build/stm32l4xx_hal_uart.o
                0x0000000008007ab0                HAL_UART_AbortReceive_IT
 .text.UART_DMARxOnlyAbortCallback
                0x0000000008007b20       0x24 ./build/stm32l4xx_hal_uart.o
 .text.HAL_MultiProcessor_EnterMuteMode
                0x0000000008007b44        0xe ./build/stm32l4xx_hal_uart.o
                0x0000000008007b44                HAL_MultiProcessor_EnterMuteMode
 .text.HAL_HalfDuplex_EnableTransmitter
                0x0000000008007b52       0x30 ./build/stm32l4xx_hal_uart.o
                0x0000000008007b52                HAL_HalfDuplex_EnableTransmitter
 .text.HAL_HalfDuplex_EnableReceiver
                0x0000000008007b82       0x30 ./build/stm32l4xx_hal_uart.o
                0x0000000008007b82                HAL_HalfDuplex_EnableReceiver
 .text.HAL_LIN_SendBreak
                0x0000000008007bb2       0x2a ./build/stm32l4xx_hal_uart.o
                0x0000000008007bb2                HAL_LIN_SendBreak
 .text.HAL_UART_GetState
                0x0000000008007bdc        0x8 ./build/stm32l4xx_hal_uart.o
                0x0000000008007bdc                HAL_UART_GetState
 .text.HAL_UART_GetError
                0x0000000008007be4        0x4 ./build/stm32l4xx_hal_uart.o
                0x0000000008007be4                HAL_UART_GetError
 .text.UART_SetConfig
                0x0000000008007be8      0x330 ./build/stm32l4xx_hal_uart.o
                0x0000000008007be8                UART_SetConfig
 .text.UART_AdvFeatureConfig
                0x0000000008007f18       0xa8 ./build/stm32l4xx_hal_uart.o
                0x0000000008007f18                UART_AdvFeatureConfig
 .text.UART_WaitOnFlagUntilTimeout
                0x0000000008007fc0       0x60 ./build/stm32l4xx_hal_uart.o
                0x0000000008007fc0                UART_WaitOnFlagUntilTimeout
 .text.HAL_UART_Transmit
                0x0000000008008020       0xb0 ./build/stm32l4xx_hal_uart.o
                0x0000000008008020                HAL_UART_Transmit
 .text.HAL_UART_Receive
                0x00000000080080d0       0xe6 ./build/stm32l4xx_hal_uart.o
                0x00000000080080d0                HAL_UART_Receive
 .text.UART_CheckIdleState
                0x00000000080081b6       0x62 ./build/stm32l4xx_hal_uart.o
                0x00000000080081b6                UART_CheckIdleState
 .text.HAL_UART_Init
                0x0000000008008218       0x5c ./build/stm32l4xx_hal_uart.o
                0x0000000008008218                HAL_UART_Init
 .text.HAL_HalfDuplex_Init
                0x0000000008008274       0x64 ./build/stm32l4xx_hal_uart.o
                0x0000000008008274                HAL_HalfDuplex_Init
 .text.HAL_LIN_Init
                0x00000000080082d8       0x80 ./build/stm32l4xx_hal_uart.o
                0x00000000080082d8                HAL_LIN_Init
 .text.HAL_MultiProcessor_Init
                0x0000000008008358       0x7e ./build/stm32l4xx_hal_uart.o
                0x0000000008008358                HAL_MultiProcessor_Init
 .text.HAL_MultiProcessor_EnableMuteMode
                0x00000000080083d6       0x28 ./build/stm32l4xx_hal_uart.o
                0x00000000080083d6                HAL_MultiProcessor_EnableMuteMode
 .text.HAL_MultiProcessor_DisableMuteMode
                0x00000000080083fe       0x28 ./build/stm32l4xx_hal_uart.o
                0x00000000080083fe                HAL_MultiProcessor_DisableMuteMode
 *fill*         0x0000000008008426        0x2 
 .text.HAL_DMA_Init
                0x0000000008008428       0xd4 ./build/stm32l4xx_hal_dma.o
                0x0000000008008428                HAL_DMA_Init
 .text.HAL_DMA_DeInit
                0x00000000080084fc       0x9c ./build/stm32l4xx_hal_dma.o
                0x00000000080084fc                HAL_DMA_DeInit
 .text.HAL_DMA_Start
                0x0000000008008598       0x62 ./build/stm32l4xx_hal_dma.o
                0x0000000008008598                HAL_DMA_Start
 .text.HAL_DMA_Start_IT
                0x00000000080085fa       0x7e ./build/stm32l4xx_hal_dma.o
                0x00000000080085fa                HAL_DMA_Start_IT
 .text.HAL_DMA_Abort
                0x0000000008008678       0x46 ./build/stm32l4xx_hal_dma.o
                0x0000000008008678                HAL_DMA_Abort
 .text.HAL_DMA_Abort_IT
                0x00000000080086be       0x4c ./build/stm32l4xx_hal_dma.o
                0x00000000080086be                HAL_DMA_Abort_IT
 .text.HAL_DMA_PollForTransfer
                0x000000000800870a       0xce ./build/stm32l4xx_hal_dma.o
                0x000000000800870a                HAL_DMA_PollForTransfer
 .text.HAL_DMA_IRQHandler
                0x00000000080087d8       0x94 ./build/stm32l4xx_hal_dma.o
                0x00000000080087d8                HAL_DMA_IRQHandler
 .text.HAL_DMA_RegisterCallback
                0x000000000800886c       0x44 ./build/stm32l4xx_hal_dma.o
                0x000000000800886c                HAL_DMA_RegisterCallback
 .text.HAL_DMA_UnRegisterCallback
                0x00000000080088b0       0x54 ./build/stm32l4xx_hal_dma.o
                0x00000000080088b0                HAL_DMA_UnRegisterCallback
 .text.HAL_DMA_GetState
                0x0000000008008904        0x6 ./build/stm32l4xx_hal_dma.o
                0x0000000008008904                HAL_DMA_GetState
 .text.HAL_DMA_GetError
                0x000000000800890a        0x4 ./build/stm32l4xx_hal_dma.o
                0x000000000800890a                HAL_DMA_GetError
 .text.HAL_RS485Ex_Init
                0x000000000800890e       0x80 ./build/stm32l4xx_hal_uart_ex.o
                0x000000000800890e                HAL_RS485Ex_Init
 .text.HAL_UARTEx_WakeupCallback
                0x000000000800898e        0x2 ./build/stm32l4xx_hal_uart_ex.o
                0x000000000800898e                HAL_UARTEx_WakeupCallback
 .text.HAL_UARTEx_EnableClockStopMode
                0x0000000008008990       0x20 ./build/stm32l4xx_hal_uart_ex.o
                0x0000000008008990                HAL_UARTEx_EnableClockStopMode
 .text.HAL_UARTEx_DisableClockStopMode
                0x00000000080089b0       0x20 ./build/stm32l4xx_hal_uart_ex.o
                0x00000000080089b0                HAL_UARTEx_DisableClockStopMode
 .text.HAL_MultiProcessorEx_AddressLength_Set
                0x00000000080089d0       0x2a ./build/stm32l4xx_hal_uart_ex.o
                0x00000000080089d0                HAL_MultiProcessorEx_AddressLength_Set
 .text.HAL_UARTEx_StopModeWakeUpSourceConfig
                0x00000000080089fa       0x8a ./build/stm32l4xx_hal_uart_ex.o
                0x00000000080089fa                HAL_UARTEx_StopModeWakeUpSourceConfig
 .text.HAL_UARTEx_EnableStopMode
                0x0000000008008a84       0x20 ./build/stm32l4xx_hal_uart_ex.o
                0x0000000008008a84                HAL_UARTEx_EnableStopMode
 .text.HAL_UARTEx_DisableStopMode
                0x0000000008008aa4       0x20 ./build/stm32l4xx_hal_uart_ex.o
                0x0000000008008aa4                HAL_UARTEx_DisableStopMode
 .text.I2C_Flush_TXDR
                0x0000000008008ac4       0x1c ./build/stm32l4xx_hal_i2c.o
 .text.I2C_TransferConfig
                0x0000000008008ae0       0x28 ./build/stm32l4xx_hal_i2c.o
 .text.I2C_Enable_IRQ
                0x0000000008008b08       0x60 ./build/stm32l4xx_hal_i2c.o
 .text.I2C_Disable_IRQ
                0x0000000008008b68       0x42 ./build/stm32l4xx_hal_i2c.o
 .text.I2C_ConvertOtherXferOptions
                0x0000000008008baa       0x1a ./build/stm32l4xx_hal_i2c.o
 .text.I2C_IsAcknowledgeFailed
                0x0000000008008bc4       0x7a ./build/stm32l4xx_hal_i2c.o
 .text.I2C_WaitOnRXNEFlagUntilTimeout
                0x0000000008008c3e       0x7e ./build/stm32l4xx_hal_i2c.o
 .text.I2C_WaitOnSTOPFlagUntilTimeout
                0x0000000008008cbc       0x4a ./build/stm32l4xx_hal_i2c.o
 .text.I2C_WaitOnFlagUntilTimeout
                0x0000000008008d06       0x54 ./build/stm32l4xx_hal_i2c.o
 .text.I2C_WaitOnTXISFlagUntilTimeout
                0x0000000008008d5a       0x4e ./build/stm32l4xx_hal_i2c.o
 .text.I2C_RequestMemoryWrite
                0x0000000008008da8       0x6c ./build/stm32l4xx_hal_i2c.o
 .text.I2C_RequestMemoryRead
                0x0000000008008e14       0x6c ./build/stm32l4xx_hal_i2c.o
 .text.HAL_I2C_MspInit
                0x0000000008008e80        0x2 ./build/stm32l4xx_hal_i2c.o
                0x0000000008008e80                HAL_I2C_MspInit
 .text.HAL_I2C_Init
                0x0000000008008e82       0xa2 ./build/stm32l4xx_hal_i2c.o
                0x0000000008008e82                HAL_I2C_Init
 .text.HAL_I2C_MspDeInit
                0x0000000008008f24        0x2 ./build/stm32l4xx_hal_i2c.o
                0x0000000008008f24                HAL_I2C_MspDeInit
 .text.HAL_I2C_DeInit
                0x0000000008008f26       0x32 ./build/stm32l4xx_hal_i2c.o
                0x0000000008008f26                HAL_I2C_DeInit
 .text.HAL_I2C_Master_Transmit
                0x0000000008008f58      0x12c ./build/stm32l4xx_hal_i2c.o
                0x0000000008008f58                HAL_I2C_Master_Transmit
 .text.HAL_I2C_Master_Receive
                0x0000000008009084      0x130 ./build/stm32l4xx_hal_i2c.o
                0x0000000008009084                HAL_I2C_Master_Receive
 .text.HAL_I2C_Slave_Transmit
                0x00000000080091b4      0x138 ./build/stm32l4xx_hal_i2c.o
                0x00000000080091b4                HAL_I2C_Slave_Transmit
 .text.HAL_I2C_Slave_Receive
                0x00000000080092ec      0x12a ./build/stm32l4xx_hal_i2c.o
                0x00000000080092ec                HAL_I2C_Slave_Receive
 *fill*         0x0000000008009416        0x2 
 .text.HAL_I2C_Master_Transmit_IT
                0x0000000008009418       0x88 ./build/stm32l4xx_hal_i2c.o
                0x0000000008009418                HAL_I2C_Master_Transmit_IT
 .text.HAL_I2C_Master_Receive_IT
                0x00000000080094a0       0x88 ./build/stm32l4xx_hal_i2c.o
                0x00000000080094a0                HAL_I2C_Master_Receive_IT
 .text.HAL_I2C_Slave_Transmit_IT
                0x0000000008009528       0x58 ./build/stm32l4xx_hal_i2c.o
                0x0000000008009528                HAL_I2C_Slave_Transmit_IT
 .text.HAL_I2C_Slave_Receive_IT
                0x0000000008009580       0x58 ./build/stm32l4xx_hal_i2c.o
                0x0000000008009580                HAL_I2C_Slave_Receive_IT
 .text.HAL_I2C_Master_Transmit_DMA
                0x00000000080095d8      0x12c ./build/stm32l4xx_hal_i2c.o
                0x00000000080095d8                HAL_I2C_Master_Transmit_DMA
 .text.HAL_I2C_Master_Receive_DMA
                0x0000000008009704      0x12c ./build/stm32l4xx_hal_i2c.o
                0x0000000008009704                HAL_I2C_Master_Receive_DMA
 .text.HAL_I2C_Slave_Transmit_DMA
                0x0000000008009830       0xd0 ./build/stm32l4xx_hal_i2c.o
                0x0000000008009830                HAL_I2C_Slave_Transmit_DMA
 .text.HAL_I2C_Slave_Receive_DMA
                0x0000000008009900       0xd4 ./build/stm32l4xx_hal_i2c.o
                0x0000000008009900                HAL_I2C_Slave_Receive_DMA
 .text.HAL_I2C_Mem_Write
                0x00000000080099d4      0x16c ./build/stm32l4xx_hal_i2c.o
                0x00000000080099d4                HAL_I2C_Mem_Write
 .text.HAL_I2C_Mem_Read
                0x0000000008009b40      0x178 ./build/stm32l4xx_hal_i2c.o
                0x0000000008009b40                HAL_I2C_Mem_Read
 .text.HAL_I2C_Mem_Write_IT
                0x0000000008009cb8       0xd0 ./build/stm32l4xx_hal_i2c.o
                0x0000000008009cb8                HAL_I2C_Mem_Write_IT
 .text.HAL_I2C_Mem_Read_IT
                0x0000000008009d88       0xd4 ./build/stm32l4xx_hal_i2c.o
                0x0000000008009d88                HAL_I2C_Mem_Read_IT
 .text.HAL_I2C_Mem_Write_DMA
                0x0000000008009e5c      0x140 ./build/stm32l4xx_hal_i2c.o
                0x0000000008009e5c                HAL_I2C_Mem_Write_DMA
 .text.HAL_I2C_Mem_Read_DMA
                0x0000000008009f9c      0x144 ./build/stm32l4xx_hal_i2c.o
                0x0000000008009f9c                HAL_I2C_Mem_Read_DMA
 .text.HAL_I2C_IsDeviceReady
                0x000000000800a0e0      0x13a ./build/stm32l4xx_hal_i2c.o
                0x000000000800a0e0                HAL_I2C_IsDeviceReady
 *fill*         0x000000000800a21a        0x2 
 .text.HAL_I2C_Master_Seq_Transmit_IT
                0x000000000800a21c       0xa4 ./build/stm32l4xx_hal_i2c.o
                0x000000000800a21c                HAL_I2C_Master_Seq_Transmit_IT
 .text.HAL_I2C_Master_Seq_Transmit_DMA
                0x000000000800a2c0      0x158 ./build/stm32l4xx_hal_i2c.o
                0x000000000800a2c0                HAL_I2C_Master_Seq_Transmit_DMA
 .text.HAL_I2C_Master_Seq_Receive_IT
                0x000000000800a418       0xa4 ./build/stm32l4xx_hal_i2c.o
                0x000000000800a418                HAL_I2C_Master_Seq_Receive_IT
 .text.HAL_I2C_Master_Seq_Receive_DMA
                0x000000000800a4bc      0x154 ./build/stm32l4xx_hal_i2c.o
                0x000000000800a4bc                HAL_I2C_Master_Seq_Receive_DMA
 .text.HAL_I2C_Slave_Seq_Transmit_IT
                0x000000000800a610       0xc0 ./build/stm32l4xx_hal_i2c.o
                0x000000000800a610                HAL_I2C_Slave_Seq_Transmit_IT
 .text.HAL_I2C_Slave_Seq_Transmit_DMA
                0x000000000800a6d0      0x164 ./build/stm32l4xx_hal_i2c.o
                0x000000000800a6d0                HAL_I2C_Slave_Seq_Transmit_DMA
 .text.HAL_I2C_Slave_Seq_Receive_IT
                0x000000000800a834       0xbc ./build/stm32l4xx_hal_i2c.o
                0x000000000800a834                HAL_I2C_Slave_Seq_Receive_IT
 .text.HAL_I2C_Slave_Seq_Receive_DMA
                0x000000000800a8f0      0x160 ./build/stm32l4xx_hal_i2c.o
                0x000000000800a8f0                HAL_I2C_Slave_Seq_Receive_DMA
 .text.HAL_I2C_EnableListen_IT
                0x000000000800aa50       0x28 ./build/stm32l4xx_hal_i2c.o
                0x000000000800aa50                HAL_I2C_EnableListen_IT
 .text.HAL_I2C_DisableListen_IT
                0x000000000800aa78       0x36 ./build/stm32l4xx_hal_i2c.o
                0x000000000800aa78                HAL_I2C_DisableListen_IT
 *fill*         0x000000000800aaae        0x2 
 .text.HAL_I2C_Master_Abort_IT
                0x000000000800aab0       0x60 ./build/stm32l4xx_hal_i2c.o
                0x000000000800aab0                HAL_I2C_Master_Abort_IT
 .text.HAL_I2C_EV_IRQHandler
                0x000000000800ab10        0xe ./build/stm32l4xx_hal_i2c.o
                0x000000000800ab10                HAL_I2C_EV_IRQHandler
 .text.HAL_I2C_MasterTxCpltCallback
                0x000000000800ab1e        0x2 ./build/stm32l4xx_hal_i2c.o
                0x000000000800ab1e                HAL_I2C_MasterTxCpltCallback
 .text.HAL_I2C_MasterRxCpltCallback
                0x000000000800ab20        0x2 ./build/stm32l4xx_hal_i2c.o
                0x000000000800ab20                HAL_I2C_MasterRxCpltCallback
 .text.I2C_ITMasterSeqCplt
                0x000000000800ab22       0x44 ./build/stm32l4xx_hal_i2c.o
 .text.HAL_I2C_SlaveTxCpltCallback
                0x000000000800ab66        0x2 ./build/stm32l4xx_hal_i2c.o
                0x000000000800ab66                HAL_I2C_SlaveTxCpltCallback
 .text.HAL_I2C_SlaveRxCpltCallback
                0x000000000800ab68        0x2 ./build/stm32l4xx_hal_i2c.o
                0x000000000800ab68                HAL_I2C_SlaveRxCpltCallback
 .text.I2C_ITSlaveSeqCplt
                0x000000000800ab6a       0x4c ./build/stm32l4xx_hal_i2c.o
 .text.I2C_DMASlaveTransmitCplt
                0x000000000800abb6       0x1a ./build/stm32l4xx_hal_i2c.o
 .text.I2C_DMASlaveReceiveCplt
                0x000000000800abd0       0x22 ./build/stm32l4xx_hal_i2c.o
 .text.HAL_I2C_AddrCallback
                0x000000000800abf2        0x2 ./build/stm32l4xx_hal_i2c.o
                0x000000000800abf2                HAL_I2C_AddrCallback
 .text.I2C_ITAddrCplt.isra.0.part.0
                0x000000000800abf4       0x70 ./build/stm32l4xx_hal_i2c.o
 .text.HAL_I2C_ListenCpltCallback
                0x000000000800ac64        0x2 ./build/stm32l4xx_hal_i2c.o
                0x000000000800ac64                HAL_I2C_ListenCpltCallback
 *fill*         0x000000000800ac66        0x2 
 .text.I2C_ITListenCplt
                0x000000000800ac68       0x5c ./build/stm32l4xx_hal_i2c.o
 .text.HAL_I2C_MemTxCpltCallback
                0x000000000800acc4        0x2 ./build/stm32l4xx_hal_i2c.o
                0x000000000800acc4                HAL_I2C_MemTxCpltCallback
 .text.HAL_I2C_MemRxCpltCallback
                0x000000000800acc6        0x2 ./build/stm32l4xx_hal_i2c.o
                0x000000000800acc6                HAL_I2C_MemRxCpltCallback
 .text.HAL_I2C_ErrorCallback
                0x000000000800acc8        0x2 ./build/stm32l4xx_hal_i2c.o
                0x000000000800acc8                HAL_I2C_ErrorCallback
 .text.HAL_I2C_AbortCpltCallback
                0x000000000800acca        0x2 ./build/stm32l4xx_hal_i2c.o
                0x000000000800acca                HAL_I2C_AbortCpltCallback
 .text.I2C_ITError
                0x000000000800accc       0xd4 ./build/stm32l4xx_hal_i2c.o
 .text.I2C_ITSlaveCplt
                0x000000000800ada0       0xf8 ./build/stm32l4xx_hal_i2c.o
 .text.I2C_Slave_ISR_IT
                0x000000000800ae98      0x130 ./build/stm32l4xx_hal_i2c.o
 .text.I2C_ITMasterCplt
                0x000000000800afc8       0xac ./build/stm32l4xx_hal_i2c.o
 .text.I2C_Master_ISR_IT
                0x000000000800b074      0x122 ./build/stm32l4xx_hal_i2c.o
 .text.I2C_Slave_ISR_DMA
                0x000000000800b196       0xe8 ./build/stm32l4xx_hal_i2c.o
 .text.I2C_Master_ISR_DMA
                0x000000000800b27e      0x104 ./build/stm32l4xx_hal_i2c.o
 .text.I2C_DMAError
                0x000000000800b382       0x12 ./build/stm32l4xx_hal_i2c.o
 .text.I2C_DMAMasterTransmitCplt
                0x000000000800b394       0x50 ./build/stm32l4xx_hal_i2c.o
 .text.I2C_DMAMasterReceiveCplt
                0x000000000800b3e4       0x50 ./build/stm32l4xx_hal_i2c.o
 .text.HAL_I2C_ER_IRQHandler
                0x000000000800b434       0x60 ./build/stm32l4xx_hal_i2c.o
                0x000000000800b434                HAL_I2C_ER_IRQHandler
 .text.I2C_DMAAbort
                0x000000000800b494       0x28 ./build/stm32l4xx_hal_i2c.o
 .text.HAL_I2C_GetState
                0x000000000800b4bc        0x6 ./build/stm32l4xx_hal_i2c.o
                0x000000000800b4bc                HAL_I2C_GetState
 .text.HAL_I2C_GetMode
                0x000000000800b4c2        0x6 ./build/stm32l4xx_hal_i2c.o
                0x000000000800b4c2                HAL_I2C_GetMode
 .text.HAL_I2C_GetError
                0x000000000800b4c8        0x4 ./build/stm32l4xx_hal_i2c.o
                0x000000000800b4c8                HAL_I2C_GetError
 .text.SystemInit
                0x000000000800b4cc       0x48 ./build/system_stm32l4xx.o
                0x000000000800b4cc                SystemInit
 .text.SystemCoreClockUpdate
                0x000000000800b514       0xa8 ./build/system_stm32l4xx.o
                0x000000000800b514                SystemCoreClockUpdate
 .text.Reset_Handler
                0x000000000800b5bc       0x50 build/stm32l476_startup.o
                0x000000000800b5bc                Reset_Handler
 .text.Default_Handler
                0x000000000800b60c        0x2 build/stm32l476_startup.o
                0x000000000800b60c                RTC_Alarm_IRQHandler
                0x000000000800b60c                EXTI2_IRQHandler
                0x000000000800b60c                TIM8_TRG_COM_IRQHandler
                0x000000000800b60c                TIM8_CC_IRQHandler
                0x000000000800b60c                DebugMon_Handler
                0x000000000800b60c                TIM1_CC_IRQHandler
                0x000000000800b60c                TSC_IRQHandler
                0x000000000800b60c                HardFault_Handler
                0x000000000800b60c                SysTick_Handler
                0x000000000800b60c                TAMP_STAMP_IRQHandler
                0x000000000800b60c                PendSV_Handler
                0x000000000800b60c                NMI_Handler
                0x000000000800b60c                EXTI3_IRQHandler
                0x000000000800b60c                LPTIM2_IRQHandler
                0x000000000800b60c                DFSDM1_FLT1_IRQHandler
                0x000000000800b60c                I2C3_ER_IRQHandler
                0x000000000800b60c                DFSDM1_FLT2_IRQHandler
                0x000000000800b60c                EXTI0_IRQHandler
                0x000000000800b60c                I2C2_EV_IRQHandler
                0x000000000800b60c                CAN1_RX0_IRQHandler
                0x000000000800b60c                FPU_IRQHandler
                0x000000000800b60c                TIM1_UP_TIM16_IRQHandler
                0x000000000800b60c                UsageFault_Handler
                0x000000000800b60c                ADC1_2_IRQHandler
                0x000000000800b60c                SPI1_IRQHandler
                0x000000000800b60c                TIM6_DAC_IRQHandler
                0x000000000800b60c                TIM8_UP_IRQHandler
                0x000000000800b60c                DMA2_Channel2_IRQHandler
                0x000000000800b60c                DMA1_Channel4_IRQHandler
                0x000000000800b60c                SAI2_IRQHandler
                0x000000000800b60c                DFSDM1_FLT3_IRQHandler
                0x000000000800b60c                USART3_IRQHandler
                0x000000000800b60c                DMA1_Channel7_IRQHandler
                0x000000000800b60c                CAN1_RX1_IRQHandler
                0x000000000800b60c                LCD_IRQHandler
                0x000000000800b60c                UART5_IRQHandler
                0x000000000800b60c                ADC3_IRQHandler
                0x000000000800b60c                TIM4_IRQHandler
                0x000000000800b60c                DMA2_Channel1_IRQHandler
                0x000000000800b60c                QUADSPI_IRQHandler
                0x000000000800b60c                I2C1_EV_IRQHandler
                0x000000000800b60c                DMA1_Channel6_IRQHandler
                0x000000000800b60c                UART4_IRQHandler
                0x000000000800b60c                DMA2_Channel4_IRQHandler
                0x000000000800b60c                TIM3_IRQHandler
                0x000000000800b60c                RCC_IRQHandler
                0x000000000800b60c                DMA1_Channel1_IRQHandler
                0x000000000800b60c                Default_Handler
                0x000000000800b60c                DMA2_Channel7_IRQHandler
                0x000000000800b60c                EXTI15_10_IRQHandler
                0x000000000800b60c                TIM7_IRQHandler
                0x000000000800b60c                SDMMC1_IRQHandler
                0x000000000800b60c                TIM5_IRQHandler
                0x000000000800b60c                I2C3_EV_IRQHandler
                0x000000000800b60c                EXTI9_5_IRQHandler
                0x000000000800b60c                RTC_WKUP_IRQHandler
                0x000000000800b60c                PVD_PVM_IRQHandler
                0x000000000800b60c                SPI2_IRQHandler
                0x000000000800b60c                MemManage_Handler
                0x000000000800b60c                CAN1_TX_IRQHandler
                0x000000000800b60c                SVC_Handler
                0x000000000800b60c                DMA2_Channel5_IRQHandler
                0x000000000800b60c                DMA1_Channel5_IRQHandler
                0x000000000800b60c                EXTI4_IRQHandler
                0x000000000800b60c                RNG_IRQHandler
                0x000000000800b60c                TIM1_TRG_COM_TIM17_IRQHandler
                0x000000000800b60c                DMA1_Channel3_IRQHandler
                0x000000000800b60c                COMP_IRQHandler
                0x000000000800b60c                WWDG_IRQHandler
                0x000000000800b60c                LPUART1_IRQHandler
                0x000000000800b60c                DMA2_Channel6_IRQHandler
                0x000000000800b60c                TIM2_IRQHandler
                0x000000000800b60c                EXTI1_IRQHandler
                0x000000000800b60c                USART2_IRQHandler
                0x000000000800b60c                DFSDM1_FLT0_IRQHandler
                0x000000000800b60c                I2C2_ER_IRQHandler
                0x000000000800b60c                DMA1_Channel2_IRQHandler
                0x000000000800b60c                TIM8_BRK_IRQHandler
                0x000000000800b60c                CAN1_SCE_IRQHandler
                0x000000000800b60c                FLASH_IRQHandler
                0x000000000800b60c                BusFault_Handler
                0x000000000800b60c                USART1_IRQHandler
                0x000000000800b60c                OTG_FS_IRQHandler
                0x000000000800b60c                SPI3_IRQHandler
                0x000000000800b60c                I2C1_ER_IRQHandler
                0x000000000800b60c                FMC_IRQHandler
                0x000000000800b60c                SWPMI1_IRQHandler
                0x000000000800b60c                LPTIM1_IRQHandler
                0x000000000800b60c                SAI1_IRQHandler
                0x000000000800b60c                DMA2_Channel3_IRQHandler
                0x000000000800b60c                TIM1_BRK_TIM15_IRQHandler
 *fill*         0x000000000800b60e        0x2 
 .text._sprintf_r
                0x000000000800b610       0x38 /home/maxime/Bureau/IMERIR-2019/gcc-arm-none-eabi-9-2019-q4-major/bin/../lib/gcc/arm-none-eabi/9.2.1/../../../../arm-none-eabi/lib/thumb/v7e-m+fp/hard/libc_nano.a(lib_a-sprintf.o)
                0x000000000800b610                _siprintf_r
                0x000000000800b610                _sprintf_r
 .text.sprintf  0x000000000800b648       0x40 /home/maxime/Bureau/IMERIR-2019/gcc-arm-none-eabi-9-2019-q4-major/bin/../lib/gcc/arm-none-eabi/9.2.1/../../../../arm-none-eabi/lib/thumb/v7e-m+fp/hard/libc_nano.a(lib_a-sprintf.o)
                0x000000000800b648                sprintf
                0x000000000800b648                siprintf
 .text.__ssputs_r
                0x000000000800b688       0xb6 /home/maxime/Bureau/IMERIR-2019/gcc-arm-none-eabi-9-2019-q4-major/bin/../lib/gcc/arm-none-eabi/9.2.1/../../../../arm-none-eabi/lib/thumb/v7e-m+fp/hard/libc_nano.a(lib_a-nano-svfprintf.o)
                0x000000000800b688                __ssputs_r
 .text.__ssprint_r
                0x000000000800b73e       0xf6 /home/maxime/Bureau/IMERIR-2019/gcc-arm-none-eabi-9-2019-q4-major/bin/../lib/gcc/arm-none-eabi/9.2.1/../../../../arm-none-eabi/lib/thumb/v7e-m+fp/hard/libc_nano.a(lib_a-nano-svfprintf.o)
                0x000000000800b73e                __ssprint_r
 .text._svfprintf_r
                0x000000000800b834      0x200 /home/maxime/Bureau/IMERIR-2019/gcc-arm-none-eabi-9-2019-q4-major/bin/../lib/gcc/arm-none-eabi/9.2.1/../../../../arm-none-eabi/lib/thumb/v7e-m+fp/hard/libc_nano.a(lib_a-nano-svfprintf.o)
                0x000000000800b834                _svfprintf_r
                0x000000000800b834                _svfiprintf_r
 .text._printf_common
                0x000000000800ba34       0xda /home/maxime/Bureau/IMERIR-2019/gcc-arm-none-eabi-9-2019-q4-major/bin/../lib/gcc/arm-none-eabi/9.2.1/../../../../arm-none-eabi/lib/thumb/v7e-m+fp/hard/libc_nano.a(lib_a-nano-vfprintf_i.o)
                0x000000000800ba34                _printf_common
 *fill*         0x000000000800bb0e        0x2 
 .text._printf_i
                0x000000000800bb10      0x24c /home/maxime/Bureau/IMERIR-2019/gcc-arm-none-eabi-9-2019-q4-major/bin/../lib/gcc/arm-none-eabi/9.2.1/../../../../arm-none-eabi/lib/thumb/v7e-m+fp/hard/libc_nano.a(lib_a-nano-vfprintf_i.o)
                0x000000000800bb10                _printf_i
 .text.memcpy   0x000000000800bd5c       0x1c /home/maxime/Bureau/IMERIR-2019/gcc-arm-none-eabi-9-2019-q4-major/bin/../lib/gcc/arm-none-eabi/9.2.1/../../../../arm-none-eabi/lib/thumb/v7e-m+fp/hard/libc_nano.a(lib_a-memcpy-stub.o)
                0x000000000800bd5c                memcpy
 .text.memmove  0x000000000800bd78       0x34 /home/maxime/Bureau/IMERIR-2019/gcc-arm-none-eabi-9-2019-q4-major/bin/../lib/gcc/arm-none-eabi/9.2.1/../../../../arm-none-eabi/lib/thumb/v7e-m+fp/hard/libc_nano.a(lib_a-memmove.o)
                0x000000000800bd78                memmove
 .text._free_r  0x000000000800bdac       0xa0 /home/maxime/Bureau/IMERIR-2019/gcc-arm-none-eabi-9-2019-q4-major/bin/../lib/gcc/arm-none-eabi/9.2.1/../../../../arm-none-eabi/lib/thumb/v7e-m+fp/hard/libc_nano.a(lib_a-nano-freer.o)
                0x000000000800bdac                _free_r
 .text._malloc_r
                0x000000000800be4c       0xb4 /home/maxime/Bureau/IMERIR-2019/gcc-arm-none-eabi-9-2019-q4-major/bin/../lib/gcc/arm-none-eabi/9.2.1/../../../../arm-none-eabi/lib/thumb/v7e-m+fp/hard/libc_nano.a(lib_a-nano-mallocr.o)
                0x000000000800be4c                _malloc_r
 .text._realloc_r
                0x000000000800bf00       0x4c /home/maxime/Bureau/IMERIR-2019/gcc-arm-none-eabi-9-2019-q4-major/bin/../lib/gcc/arm-none-eabi/9.2.1/../../../../arm-none-eabi/lib/thumb/v7e-m+fp/hard/libc_nano.a(lib_a-nano-reallocr.o)
                0x000000000800bf00                _realloc_r
 .text._sbrk_r  0x000000000800bf4c       0x20 /home/maxime/Bureau/IMERIR-2019/gcc-arm-none-eabi-9-2019-q4-major/bin/../lib/gcc/arm-none-eabi/9.2.1/../../../../arm-none-eabi/lib/thumb/v7e-m+fp/hard/libc_nano.a(lib_a-sbrkr.o)
                0x000000000800bf4c                _sbrk_r
 .text.__malloc_lock
                0x000000000800bf6c        0xc /home/maxime/Bureau/IMERIR-2019/gcc-arm-none-eabi-9-2019-q4-major/bin/../lib/gcc/arm-none-eabi/9.2.1/../../../../arm-none-eabi/lib/thumb/v7e-m+fp/hard/libc_nano.a(lib_a-mlock.o)
                0x000000000800bf6c                __malloc_lock
 .text.__malloc_unlock
                0x000000000800bf78        0xc /home/maxime/Bureau/IMERIR-2019/gcc-arm-none-eabi-9-2019-q4-major/bin/../lib/gcc/arm-none-eabi/9.2.1/../../../../arm-none-eabi/lib/thumb/v7e-m+fp/hard/libc_nano.a(lib_a-mlock.o)
                0x000000000800bf78                __malloc_unlock
 .text._malloc_usable_size_r
                0x000000000800bf84       0x10 /home/maxime/Bureau/IMERIR-2019/gcc-arm-none-eabi-9-2019-q4-major/bin/../lib/gcc/arm-none-eabi/9.2.1/../../../../arm-none-eabi/lib/thumb/v7e-m+fp/hard/libc_nano.a(lib_a-nano-msizer.o)
                0x000000000800bf84                _malloc_usable_size_r
 .text.cleanup_glue
                0x000000000800bf94       0x1a /home/maxime/Bureau/IMERIR-2019/gcc-arm-none-eabi-9-2019-q4-major/bin/../lib/gcc/arm-none-eabi/9.2.1/../../../../arm-none-eabi/lib/thumb/v7e-m+fp/hard/libc_nano.a(lib_a-reent.o)
                0x000000000800bf94                cleanup_glue
 *fill*         0x000000000800bfae        0x2 
 .text._reclaim_reent
                0x000000000800bfb0       0xb8 /home/maxime/Bureau/IMERIR-2019/gcc-arm-none-eabi-9-2019-q4-major/bin/../lib/gcc/arm-none-eabi/9.2.1/../../../../arm-none-eabi/lib/thumb/v7e-m+fp/hard/libc_nano.a(lib_a-reent.o)
                0x000000000800bfb0                _reclaim_reent
 .text.__retarget_lock_init
                0x000000000800c068        0x2 /home/maxime/Bureau/IMERIR-2019/gcc-arm-none-eabi-9-2019-q4-major/bin/../lib/gcc/arm-none-eabi/9.2.1/../../../../arm-none-eabi/lib/thumb/v7e-m+fp/hard/libc_nano.a(lib_a-lock.o)
                0x000000000800c068                __retarget_lock_init
 .text.__retarget_lock_init_recursive
                0x000000000800c06a        0x2 /home/maxime/Bureau/IMERIR-2019/gcc-arm-none-eabi-9-2019-q4-major/bin/../lib/gcc/arm-none-eabi/9.2.1/../../../../arm-none-eabi/lib/thumb/v7e-m+fp/hard/libc_nano.a(lib_a-lock.o)
                0x000000000800c06a                __retarget_lock_init_recursive
 .text.__retarget_lock_close
                0x000000000800c06c        0x2 /home/maxime/Bureau/IMERIR-2019/gcc-arm-none-eabi-9-2019-q4-major/bin/../lib/gcc/arm-none-eabi/9.2.1/../../../../arm-none-eabi/lib/thumb/v7e-m+fp/hard/libc_nano.a(lib_a-lock.o)
                0x000000000800c06c                __retarget_lock_close
 .text.__retarget_lock_close_recursive
                0x000000000800c06e        0x2 /home/maxime/Bureau/IMERIR-2019/gcc-arm-none-eabi-9-2019-q4-major/bin/../lib/gcc/arm-none-eabi/9.2.1/../../../../arm-none-eabi/lib/thumb/v7e-m+fp/hard/libc_nano.a(lib_a-lock.o)
                0x000000000800c06e                __retarget_lock_close_recursive
 .text.__retarget_lock_acquire
                0x000000000800c070        0x2 /home/maxime/Bureau/IMERIR-2019/gcc-arm-none-eabi-9-2019-q4-major/bin/../lib/gcc/arm-none-eabi/9.2.1/../../../../arm-none-eabi/lib/thumb/v7e-m+fp/hard/libc_nano.a(lib_a-lock.o)
                0x000000000800c070                __retarget_lock_acquire
 .text.__retarget_lock_acquire_recursive
                0x000000000800c072        0x2 /home/maxime/Bureau/IMERIR-2019/gcc-arm-none-eabi-9-2019-q4-major/bin/../lib/gcc/arm-none-eabi/9.2.1/../../../../arm-none-eabi/lib/thumb/v7e-m+fp/hard/libc_nano.a(lib_a-lock.o)
                0x000000000800c072                __retarget_lock_acquire_recursive
 .text.__retarget_lock_try_acquire
                0x000000000800c074        0x4 /home/maxime/Bureau/IMERIR-2019/gcc-arm-none-eabi-9-2019-q4-major/bin/../lib/gcc/arm-none-eabi/9.2.1/../../../../arm-none-eabi/lib/thumb/v7e-m+fp/hard/libc_nano.a(lib_a-lock.o)
                0x000000000800c074                __retarget_lock_try_acquire
 .text.__retarget_lock_try_acquire_recursive
                0x000000000800c078        0x4 /home/maxime/Bureau/IMERIR-2019/gcc-arm-none-eabi-9-2019-q4-major/bin/../lib/gcc/arm-none-eabi/9.2.1/../../../../arm-none-eabi/lib/thumb/v7e-m+fp/hard/libc_nano.a(lib_a-lock.o)
                0x000000000800c078                __retarget_lock_try_acquire_recursive
 .text.__retarget_lock_release
                0x000000000800c07c        0x2 /home/maxime/Bureau/IMERIR-2019/gcc-arm-none-eabi-9-2019-q4-major/bin/../lib/gcc/arm-none-eabi/9.2.1/../../../../arm-none-eabi/lib/thumb/v7e-m+fp/hard/libc_nano.a(lib_a-lock.o)
                0x000000000800c07c                __retarget_lock_release
 .text.__retarget_lock_release_recursive
                0x000000000800c07e        0x2 /home/maxime/Bureau/IMERIR-2019/gcc-arm-none-eabi-9-2019-q4-major/bin/../lib/gcc/arm-none-eabi/9.2.1/../../../../arm-none-eabi/lib/thumb/v7e-m+fp/hard/libc_nano.a(lib_a-lock.o)
                0x000000000800c07e                __retarget_lock_release_recursive
 .text._sbrk    0x000000000800c080       0x1c /home/maxime/Bureau/IMERIR-2019/gcc-arm-none-eabi-9-2019-q4-major/bin/../lib/gcc/arm-none-eabi/9.2.1/../../../../arm-none-eabi/lib/thumb/v7e-m+fp/hard/libnosys.a(sbrk.o)
                0x000000000800c080                _sbrk
 .text._exit    0x000000000800c09c        0x4 /home/maxime/Bureau/IMERIR-2019/gcc-arm-none-eabi-9-2019-q4-major/bin/../lib/gcc/arm-none-eabi/9.2.1/../../../../arm-none-eabi/lib/thumb/v7e-m+fp/hard/libnosys.a(_exit.o)
                0x000000000800c09c                _exit
 *(.glue_7)
 .glue_7        0x000000000800c0a0        0x0 linker stubs
 *(.glue_7t)
 .glue_7t       0x000000000800c0a0        0x0 linker stubs
 *(.eh_frame)
 .eh_frame      0x000000000800c0a0        0x0 /home/maxime/Bureau/IMERIR-2019/gcc-arm-none-eabi-9-2019-q4-major/bin/../lib/gcc/arm-none-eabi/9.2.1/thumb/v7e-m+fp/hard/crtbegin.o
 .eh_frame      0x000000000800c0a0        0x4 /home/maxime/Bureau/IMERIR-2019/gcc-arm-none-eabi-9-2019-q4-major/bin/../lib/gcc/arm-none-eabi/9.2.1/thumb/v7e-m+fp/hard/crtend.o
 *(.init)
 .init          0x000000000800c0a4        0x4 /home/maxime/Bureau/IMERIR-2019/gcc-arm-none-eabi-9-2019-q4-major/bin/../lib/gcc/arm-none-eabi/9.2.1/thumb/v7e-m+fp/hard/crti.o
                0x000000000800c0a4                _init
 .init          0x000000000800c0a8        0x8 /home/maxime/Bureau/IMERIR-2019/gcc-arm-none-eabi-9-2019-q4-major/bin/../lib/gcc/arm-none-eabi/9.2.1/thumb/v7e-m+fp/hard/crtn.o
 *(.fini)
 .fini          0x000000000800c0b0        0x4 /home/maxime/Bureau/IMERIR-2019/gcc-arm-none-eabi-9-2019-q4-major/bin/../lib/gcc/arm-none-eabi/9.2.1/thumb/v7e-m+fp/hard/crti.o
                0x000000000800c0b0                _fini
 .fini          0x000000000800c0b4        0x8 /home/maxime/Bureau/IMERIR-2019/gcc-arm-none-eabi-9-2019-q4-major/bin/../lib/gcc/arm-none-eabi/9.2.1/thumb/v7e-m+fp/hard/crtn.o
                0x000000000800c0c0                . = ALIGN (0x8)
 *fill*         0x000000000800c0bc        0x4 
                0x000000000800c0c0                _etext = .

.vfp11_veneer   0x000000000800c0c0        0x0
 .vfp11_veneer  0x000000000800c0c0        0x0 linker stubs

.v4_bx          0x000000000800c0c0        0x0
 .v4_bx         0x000000000800c0c0        0x0 linker stubs

.iplt           0x000000000800c0c0        0x0
 .iplt          0x000000000800c0c0        0x0 /home/maxime/Bureau/IMERIR-2019/gcc-arm-none-eabi-9-2019-q4-major/bin/../lib/gcc/arm-none-eabi/9.2.1/thumb/v7e-m+fp/hard/crtbegin.o

.rodata         0x000000000800c0c0      0x100
                0x000000000800c0c0                . = ALIGN (0x8)
 *(.rodata)
 *(.rodata*)
 .rodata._global_impure_ptr
                0x000000000800c0c0        0x4 /home/maxime/Bureau/IMERIR-2019/gcc-arm-none-eabi-9-2019-q4-major/bin/../lib/gcc/arm-none-eabi/9.2.1/../../../../arm-none-eabi/lib/thumb/v7e-m+fp/hard/libc_nano.a(lib_a-impure.o)
                0x000000000800c0c0                _global_impure_ptr
 .rodata.example_main_lsm6dso.str1.1
                0x000000000800c0c4       0x69 ./build/read_data_simple.o
 *fill*         0x000000000800c12d        0x1 
 .rodata.BUTTON_IRQn
                0x000000000800c12e        0x2 ./build/stm32l4xx_nucleo.o
                0x000000000800c12e                BUTTON_IRQn
 .rodata.BUTTON_PIN
                0x000000000800c130        0x2 ./build/stm32l4xx_nucleo.o
                0x000000000800c130                BUTTON_PIN
 .rodata.GPIO_PIN
                0x000000000800c132        0x2 ./build/stm32l4xx_nucleo.o
                0x000000000800c132                GPIO_PIN
 .rodata.CSWTCH.49
                0x000000000800c134        0x3 ./build/stm32l4xx_hal_uart.o
 .rodata.CSWTCH.50
                0x000000000800c137        0xd ./build/stm32l4xx_hal_uart.o
 .rodata.AHBPrescTable
                0x000000000800c144       0x10 ./build/system_stm32l4xx.o
                0x000000000800c144                AHBPrescTable
 .rodata.APBPrescTable
                0x000000000800c154        0x8 ./build/system_stm32l4xx.o
                0x000000000800c154                APBPrescTable
 .rodata.MSIRangeTable
                0x000000000800c15c       0x30 ./build/system_stm32l4xx.o
                0x000000000800c15c                MSIRangeTable
 .rodata._svfprintf_r.str1.1
                0x000000000800c18c       0x11 /home/maxime/Bureau/IMERIR-2019/gcc-arm-none-eabi-9-2019-q4-major/bin/../lib/gcc/arm-none-eabi/9.2.1/../../../../arm-none-eabi/lib/thumb/v7e-m+fp/hard/libc_nano.a(lib_a-nano-svfprintf.o)
 .rodata._printf_i.str1.1
                0x000000000800c19d       0x22 /home/maxime/Bureau/IMERIR-2019/gcc-arm-none-eabi-9-2019-q4-major/bin/../lib/gcc/arm-none-eabi/9.2.1/../../../../arm-none-eabi/lib/thumb/v7e-m+fp/hard/libc_nano.a(lib_a-nano-vfprintf_i.o)
                0x000000000800c1c0                . = ALIGN (0x8)
 *fill*         0x000000000800c1bf        0x1 

.ARM.extab      0x000000000800c1c0        0x0
                0x000000000800c1c0                . = ALIGN (0x8)
 *(.ARM.extab* .gnu.linkonce.armextab.*)
 .ARM.extab     0x000000000800c1c0        0x0 /home/maxime/Bureau/IMERIR-2019/gcc-arm-none-eabi-9-2019-q4-major/bin/../lib/gcc/arm-none-eabi/9.2.1/../../../../arm-none-eabi/lib/thumb/v7e-m+fp/hard/crt0.o
 .ARM.extab     0x000000000800c1c0        0x0 /home/maxime/Bureau/IMERIR-2019/gcc-arm-none-eabi-9-2019-q4-major/bin/../lib/gcc/arm-none-eabi/9.2.1/thumb/v7e-m+fp/hard/libgcc.a(_udivmoddi4.o)
                0x000000000800c1c0                . = ALIGN (0x8)

.ARM            0x000000000800c1c0        0x8
                0x000000000800c1c0                . = ALIGN (0x8)
                0x000000000800c1c0                __exidx_start = .
 *(.ARM.exidx*)
 .ARM.exidx     0x000000000800c1c0        0x8 /home/maxime/Bureau/IMERIR-2019/gcc-arm-none-eabi-9-2019-q4-major/bin/../lib/gcc/arm-none-eabi/9.2.1/../../../../arm-none-eabi/lib/thumb/v7e-m+fp/hard/crt0.o
 .ARM.exidx     0x000000000800c1c8        0x0 /home/maxime/Bureau/IMERIR-2019/gcc-arm-none-eabi-9-2019-q4-major/bin/../lib/gcc/arm-none-eabi/9.2.1/thumb/v7e-m+fp/hard/libgcc.a(_udivmoddi4.o)
                                          0x8 (size before relaxing)
                0x000000000800c1c8                __exidx_end = .
                0x000000000800c1c8                . = ALIGN (0x8)

.rel.dyn        0x000000000800c1c8        0x0
 .rel.iplt      0x000000000800c1c8        0x0 /home/maxime/Bureau/IMERIR-2019/gcc-arm-none-eabi-9-2019-q4-major/bin/../lib/gcc/arm-none-eabi/9.2.1/thumb/v7e-m+fp/hard/crtbegin.o

.preinit_array  0x000000000800c1c8        0x0
                0x000000000800c1c8                . = ALIGN (0x8)
                0x000000000800c1c8                PROVIDE (__preinit_array_start = .)
 *(.preinit_array*)
                0x000000000800c1c8                PROVIDE (__preinit_array_end = .)
                0x000000000800c1c8                . = ALIGN (0x8)

.init_array     0x000000000800c1c8        0x8
                0x000000000800c1c8                . = ALIGN (0x8)
                0x000000000800c1c8                PROVIDE (__init_array_start = .)
 *(SORT_BY_NAME(.init_array.*))
 *(.init_array*)
 .init_array    0x000000000800c1c8        0x4 /home/maxime/Bureau/IMERIR-2019/gcc-arm-none-eabi-9-2019-q4-major/bin/../lib/gcc/arm-none-eabi/9.2.1/thumb/v7e-m+fp/hard/crtbegin.o
                0x000000000800c1cc                PROVIDE (__init_array_end = .)
                0x000000000800c1d0                . = ALIGN (0x8)
 *fill*         0x000000000800c1cc        0x4 

.fini_array     0x000000000800c1d0        0x8
                0x000000000800c1d0                . = ALIGN (0x8)
                [!provide]                        PROVIDE (__fini_array_start = .)
 *(SORT_BY_NAME(.fini_array.*))
 *(.fini_array*)
 .fini_array    0x000000000800c1d0        0x4 /home/maxime/Bureau/IMERIR-2019/gcc-arm-none-eabi-9-2019-q4-major/bin/../lib/gcc/arm-none-eabi/9.2.1/thumb/v7e-m+fp/hard/crtbegin.o
                [!provide]                        PROVIDE (__fini_array_end = .)
                0x000000000800c1d8                . = ALIGN (0x8)
 *fill*         0x000000000800c1d4        0x4 
                0x000000000800c1d8                _sidata = LOADADDR (.data)

.data           0x0000000020000000       0x80 load address 0x000000000800c1d8
                0x0000000020000000                . = ALIGN (0x8)
                0x0000000020000000                _sdata = .
 *(.data)
 .data          0x0000000020000000        0x0 /home/maxime/Bureau/IMERIR-2019/gcc-arm-none-eabi-9-2019-q4-major/bin/../lib/gcc/arm-none-eabi/9.2.1/thumb/v7e-m+fp/hard/crti.o
 .data          0x0000000020000000        0x4 /home/maxime/Bureau/IMERIR-2019/gcc-arm-none-eabi-9-2019-q4-major/bin/../lib/gcc/arm-none-eabi/9.2.1/thumb/v7e-m+fp/hard/crtbegin.o
                0x0000000020000000                __dso_handle
 .data          0x0000000020000004        0x0 /home/maxime/Bureau/IMERIR-2019/gcc-arm-none-eabi-9-2019-q4-major/bin/../lib/gcc/arm-none-eabi/9.2.1/../../../../arm-none-eabi/lib/thumb/v7e-m+fp/hard/crt0.o
 .data          0x0000000020000004        0x0 /home/maxime/Bureau/IMERIR-2019/gcc-arm-none-eabi-9-2019-q4-major/bin/../lib/gcc/arm-none-eabi/9.2.1/../../../../arm-none-eabi/lib/thumb/v7e-m+fp/hard/libc_nano.a(lib_a-exit.o)
 .data          0x0000000020000004        0x0 /home/maxime/Bureau/IMERIR-2019/gcc-arm-none-eabi-9-2019-q4-major/bin/../lib/gcc/arm-none-eabi/9.2.1/../../../../arm-none-eabi/lib/thumb/v7e-m+fp/hard/libc_nano.a(lib_a-impure.o)
 .data          0x0000000020000004        0x0 /home/maxime/Bureau/IMERIR-2019/gcc-arm-none-eabi-9-2019-q4-major/bin/../lib/gcc/arm-none-eabi/9.2.1/../../../../arm-none-eabi/lib/thumb/v7e-m+fp/hard/libc_nano.a(lib_a-init.o)
 .data          0x0000000020000004        0x0 /home/maxime/Bureau/IMERIR-2019/gcc-arm-none-eabi-9-2019-q4-major/bin/../lib/gcc/arm-none-eabi/9.2.1/../../../../arm-none-eabi/lib/thumb/v7e-m+fp/hard/libc_nano.a(lib_a-memset.o)
 .data          0x0000000020000004        0x0 ./build/main.o
 .data          0x0000000020000004        0x0 ./build/read_data_simple.o
 .data          0x0000000020000004        0x0 ./build/stm32l4xx_nucleo.o
 .data          0x0000000020000004        0x0 ./build/lsm6dso_reg.o
 .data          0x0000000020000004        0x0 ./build/stm32l4xx_hal_i2c_ex.o
 .data          0x0000000020000004        0x0 ./build/stm32l4xx_hal.o
 .data          0x0000000020000004        0x0 ./build/stm32l4xx_hal_cortex.o
 .data          0x0000000020000004        0x0 ./build/stm32l4xx_hal_rcc.o
 .data          0x0000000020000004        0x0 ./build/stm32l4xx_hal_pwr_ex.o
 .data          0x0000000020000004        0x0 ./build/stm32l4xx_hal_gpio.o
 .data          0x0000000020000004        0x0 ./build/stm32l4xx_hal_pwr.o
 .data          0x0000000020000004        0x0 ./build/stm32l4xx_hal_uart.o
 .data          0x0000000020000004        0x0 ./build/stm32l4xx_hal_dma.o
 .data          0x0000000020000004        0x0 ./build/stm32l4xx_hal_uart_ex.o
 .data          0x0000000020000004        0x0 ./build/stm32l4xx_hal_wwdg.o
 .data          0x0000000020000004        0x0 ./build/stm32l4xx_hal_i2c.o
 .data          0x0000000020000004        0x0 ./build/system_stm32l4xx.o
 .data          0x0000000020000004        0x0 build/stm32l476_startup.o
 .data          0x0000000020000004        0x0 /home/maxime/Bureau/IMERIR-2019/gcc-arm-none-eabi-9-2019-q4-major/bin/../lib/gcc/arm-none-eabi/9.2.1/thumb/v7e-m+fp/hard/libgcc.a(_arm_addsubdf3.o)
 .data          0x0000000020000004        0x0 /home/maxime/Bureau/IMERIR-2019/gcc-arm-none-eabi-9-2019-q4-major/bin/../lib/gcc/arm-none-eabi/9.2.1/thumb/v7e-m+fp/hard/libgcc.a(_aeabi_ldivmod.o)
 .data          0x0000000020000004        0x0 /home/maxime/Bureau/IMERIR-2019/gcc-arm-none-eabi-9-2019-q4-major/bin/../lib/gcc/arm-none-eabi/9.2.1/thumb/v7e-m+fp/hard/libgcc.a(_aeabi_uldivmod.o)
 .data          0x0000000020000004        0x0 /home/maxime/Bureau/IMERIR-2019/gcc-arm-none-eabi-9-2019-q4-major/bin/../lib/gcc/arm-none-eabi/9.2.1/thumb/v7e-m+fp/hard/libgcc.a(_udivmoddi4.o)
 .data          0x0000000020000004        0x0 /home/maxime/Bureau/IMERIR-2019/gcc-arm-none-eabi-9-2019-q4-major/bin/../lib/gcc/arm-none-eabi/9.2.1/thumb/v7e-m+fp/hard/libgcc.a(_dvmd_tls.o)
 .data          0x0000000020000004        0x0 /home/maxime/Bureau/IMERIR-2019/gcc-arm-none-eabi-9-2019-q4-major/bin/../lib/gcc/arm-none-eabi/9.2.1/../../../../arm-none-eabi/lib/thumb/v7e-m+fp/hard/libc_nano.a(lib_a-sprintf.o)
 .data          0x0000000020000004        0x0 /home/maxime/Bureau/IMERIR-2019/gcc-arm-none-eabi-9-2019-q4-major/bin/../lib/gcc/arm-none-eabi/9.2.1/../../../../arm-none-eabi/lib/thumb/v7e-m+fp/hard/libc_nano.a(lib_a-strlen.o)
 .data          0x0000000020000004        0x0 /home/maxime/Bureau/IMERIR-2019/gcc-arm-none-eabi-9-2019-q4-major/bin/../lib/gcc/arm-none-eabi/9.2.1/../../../../arm-none-eabi/lib/thumb/v7e-m+fp/hard/libc_nano.a(lib_a-nano-svfprintf.o)
 .data          0x0000000020000004        0x0 /home/maxime/Bureau/IMERIR-2019/gcc-arm-none-eabi-9-2019-q4-major/bin/../lib/gcc/arm-none-eabi/9.2.1/../../../../arm-none-eabi/lib/thumb/v7e-m+fp/hard/libc_nano.a(lib_a-nano-vfprintf_i.o)
 .data          0x0000000020000004        0x0 /home/maxime/Bureau/IMERIR-2019/gcc-arm-none-eabi-9-2019-q4-major/bin/../lib/gcc/arm-none-eabi/9.2.1/../../../../arm-none-eabi/lib/thumb/v7e-m+fp/hard/libc_nano.a(lib_a-memchr.o)
 .data          0x0000000020000004        0x0 /home/maxime/Bureau/IMERIR-2019/gcc-arm-none-eabi-9-2019-q4-major/bin/../lib/gcc/arm-none-eabi/9.2.1/../../../../arm-none-eabi/lib/thumb/v7e-m+fp/hard/libc_nano.a(lib_a-memcpy-stub.o)
 .data          0x0000000020000004        0x0 /home/maxime/Bureau/IMERIR-2019/gcc-arm-none-eabi-9-2019-q4-major/bin/../lib/gcc/arm-none-eabi/9.2.1/../../../../arm-none-eabi/lib/thumb/v7e-m+fp/hard/libc_nano.a(lib_a-memmove.o)
 .data          0x0000000020000004        0x0 /home/maxime/Bureau/IMERIR-2019/gcc-arm-none-eabi-9-2019-q4-major/bin/../lib/gcc/arm-none-eabi/9.2.1/../../../../arm-none-eabi/lib/thumb/v7e-m+fp/hard/libc_nano.a(lib_a-nano-freer.o)
 .data          0x0000000020000004        0x0 /home/maxime/Bureau/IMERIR-2019/gcc-arm-none-eabi-9-2019-q4-major/bin/../lib/gcc/arm-none-eabi/9.2.1/../../../../arm-none-eabi/lib/thumb/v7e-m+fp/hard/libc_nano.a(lib_a-nano-mallocr.o)
 .data          0x0000000020000004        0x0 /home/maxime/Bureau/IMERIR-2019/gcc-arm-none-eabi-9-2019-q4-major/bin/../lib/gcc/arm-none-eabi/9.2.1/../../../../arm-none-eabi/lib/thumb/v7e-m+fp/hard/libc_nano.a(lib_a-nano-reallocr.o)
 .data          0x0000000020000004        0x0 /home/maxime/Bureau/IMERIR-2019/gcc-arm-none-eabi-9-2019-q4-major/bin/../lib/gcc/arm-none-eabi/9.2.1/../../../../arm-none-eabi/lib/thumb/v7e-m+fp/hard/libc_nano.a(lib_a-sbrkr.o)
 .data          0x0000000020000004        0x0 /home/maxime/Bureau/IMERIR-2019/gcc-arm-none-eabi-9-2019-q4-major/bin/../lib/gcc/arm-none-eabi/9.2.1/../../../../arm-none-eabi/lib/thumb/v7e-m+fp/hard/libc_nano.a(lib_a-mlock.o)
 .data          0x0000000020000004        0x0 /home/maxime/Bureau/IMERIR-2019/gcc-arm-none-eabi-9-2019-q4-major/bin/../lib/gcc/arm-none-eabi/9.2.1/../../../../arm-none-eabi/lib/thumb/v7e-m+fp/hard/libc_nano.a(lib_a-nano-msizer.o)
 .data          0x0000000020000004        0x0 /home/maxime/Bureau/IMERIR-2019/gcc-arm-none-eabi-9-2019-q4-major/bin/../lib/gcc/arm-none-eabi/9.2.1/../../../../arm-none-eabi/lib/thumb/v7e-m+fp/hard/libc_nano.a(lib_a-reent.o)
 .data          0x0000000020000004        0x0 /home/maxime/Bureau/IMERIR-2019/gcc-arm-none-eabi-9-2019-q4-major/bin/../lib/gcc/arm-none-eabi/9.2.1/../../../../arm-none-eabi/lib/thumb/v7e-m+fp/hard/libc_nano.a(lib_a-lock.o)
 .data          0x0000000020000004        0x0 /home/maxime/Bureau/IMERIR-2019/gcc-arm-none-eabi-9-2019-q4-major/bin/../lib/gcc/arm-none-eabi/9.2.1/../../../../arm-none-eabi/lib/thumb/v7e-m+fp/hard/libnosys.a(sbrk.o)
 .data          0x0000000020000004        0x0 /home/maxime/Bureau/IMERIR-2019/gcc-arm-none-eabi-9-2019-q4-major/bin/../lib/gcc/arm-none-eabi/9.2.1/../../../../arm-none-eabi/lib/thumb/v7e-m+fp/hard/libnosys.a(_exit.o)
 .data          0x0000000020000004        0x0 /home/maxime/Bureau/IMERIR-2019/gcc-arm-none-eabi-9-2019-q4-major/bin/../lib/gcc/arm-none-eabi/9.2.1/thumb/v7e-m+fp/hard/crtend.o
 .data          0x0000000020000004        0x0 /home/maxime/Bureau/IMERIR-2019/gcc-arm-none-eabi-9-2019-q4-major/bin/../lib/gcc/arm-none-eabi/9.2.1/thumb/v7e-m+fp/hard/crtn.o
 *(.data*)
 .data._impure_ptr
                0x0000000020000004        0x4 /home/maxime/Bureau/IMERIR-2019/gcc-arm-none-eabi-9-2019-q4-major/bin/../lib/gcc/arm-none-eabi/9.2.1/../../../../arm-none-eabi/lib/thumb/v7e-m+fp/hard/libc_nano.a(lib_a-impure.o)
                0x0000000020000004                _impure_ptr
 .data.impure_data
                0x0000000020000008       0x60 /home/maxime/Bureau/IMERIR-2019/gcc-arm-none-eabi-9-2019-q4-major/bin/../lib/gcc/arm-none-eabi/9.2.1/../../../../arm-none-eabi/lib/thumb/v7e-m+fp/hard/libc_nano.a(lib_a-impure.o)
 .data.BUTTON_PORT
                0x0000000020000068        0x4 ./build/stm32l4xx_nucleo.o
                0x0000000020000068                BUTTON_PORT
 .data.GPIO_PORT
                0x000000002000006c        0x4 ./build/stm32l4xx_nucleo.o
                0x000000002000006c                GPIO_PORT
 .data.uwTickFreq
                0x0000000020000070        0x4 ./build/stm32l4xx_hal.o
                0x0000000020000070                uwTickFreq
 .data.uwTickPrio
                0x0000000020000074        0x4 ./build/stm32l4xx_hal.o
                0x0000000020000074                uwTickPrio
 .data.SystemCoreClock
                0x0000000020000078        0x4 ./build/system_stm32l4xx.o
                0x0000000020000078                SystemCoreClock
                0x0000000020000080                . = ALIGN (0x8)
 *fill*         0x000000002000007c        0x4 
                0x0000000020000080                _edata = .

.igot.plt       0x0000000020000080        0x0 load address 0x000000000800c258
 .igot.plt      0x0000000020000080        0x0 /home/maxime/Bureau/IMERIR-2019/gcc-arm-none-eabi-9-2019-q4-major/bin/../lib/gcc/arm-none-eabi/9.2.1/thumb/v7e-m+fp/hard/crtbegin.o
                0x0000000020000080                . = ALIGN (0x4)

.bss            0x0000000020000080      0x52c load address 0x000000000800c258
                0x0000000020000080                _sbss = .
                0x0000000020000080                __bss_start__ = _sbss
 *(.bss)
 .bss           0x0000000020000080        0x0 /home/maxime/Bureau/IMERIR-2019/gcc-arm-none-eabi-9-2019-q4-major/bin/../lib/gcc/arm-none-eabi/9.2.1/thumb/v7e-m+fp/hard/crti.o
 .bss           0x0000000020000080       0x1c /home/maxime/Bureau/IMERIR-2019/gcc-arm-none-eabi-9-2019-q4-major/bin/../lib/gcc/arm-none-eabi/9.2.1/thumb/v7e-m+fp/hard/crtbegin.o
 .bss           0x000000002000009c        0x0 /home/maxime/Bureau/IMERIR-2019/gcc-arm-none-eabi-9-2019-q4-major/bin/../lib/gcc/arm-none-eabi/9.2.1/../../../../arm-none-eabi/lib/thumb/v7e-m+fp/hard/crt0.o
 .bss           0x000000002000009c        0x0 /home/maxime/Bureau/IMERIR-2019/gcc-arm-none-eabi-9-2019-q4-major/bin/../lib/gcc/arm-none-eabi/9.2.1/../../../../arm-none-eabi/lib/thumb/v7e-m+fp/hard/libc_nano.a(lib_a-exit.o)
 .bss           0x000000002000009c        0x0 /home/maxime/Bureau/IMERIR-2019/gcc-arm-none-eabi-9-2019-q4-major/bin/../lib/gcc/arm-none-eabi/9.2.1/../../../../arm-none-eabi/lib/thumb/v7e-m+fp/hard/libc_nano.a(lib_a-impure.o)
 .bss           0x000000002000009c        0x0 /home/maxime/Bureau/IMERIR-2019/gcc-arm-none-eabi-9-2019-q4-major/bin/../lib/gcc/arm-none-eabi/9.2.1/../../../../arm-none-eabi/lib/thumb/v7e-m+fp/hard/libc_nano.a(lib_a-init.o)
 .bss           0x000000002000009c        0x0 /home/maxime/Bureau/IMERIR-2019/gcc-arm-none-eabi-9-2019-q4-major/bin/../lib/gcc/arm-none-eabi/9.2.1/../../../../arm-none-eabi/lib/thumb/v7e-m+fp/hard/libc_nano.a(lib_a-memset.o)
 .bss           0x000000002000009c        0x0 ./build/main.o
 .bss           0x000000002000009c        0x0 ./build/read_data_simple.o
 .bss           0x000000002000009c        0x0 ./build/stm32l4xx_nucleo.o
 .bss           0x000000002000009c        0x0 ./build/lsm6dso_reg.o
 .bss           0x000000002000009c        0x0 ./build/stm32l4xx_hal_i2c_ex.o
 .bss           0x000000002000009c        0x0 ./build/stm32l4xx_hal.o
 .bss           0x000000002000009c        0x0 ./build/stm32l4xx_hal_cortex.o
 .bss           0x000000002000009c        0x0 ./build/stm32l4xx_hal_rcc.o
 .bss           0x000000002000009c        0x0 ./build/stm32l4xx_hal_pwr_ex.o
 .bss           0x000000002000009c        0x0 ./build/stm32l4xx_hal_gpio.o
 .bss           0x000000002000009c        0x0 ./build/stm32l4xx_hal_pwr.o
 .bss           0x000000002000009c        0x0 ./build/stm32l4xx_hal_uart.o
 .bss           0x000000002000009c        0x0 ./build/stm32l4xx_hal_dma.o
 .bss           0x000000002000009c        0x0 ./build/stm32l4xx_hal_uart_ex.o
 .bss           0x000000002000009c        0x0 ./build/stm32l4xx_hal_wwdg.o
 .bss           0x000000002000009c        0x0 ./build/stm32l4xx_hal_i2c.o
 .bss           0x000000002000009c        0x0 ./build/system_stm32l4xx.o
 .bss           0x000000002000009c        0x0 build/stm32l476_startup.o
 .bss           0x000000002000009c        0x0 /home/maxime/Bureau/IMERIR-2019/gcc-arm-none-eabi-9-2019-q4-major/bin/../lib/gcc/arm-none-eabi/9.2.1/thumb/v7e-m+fp/hard/libgcc.a(_arm_addsubdf3.o)
 .bss           0x000000002000009c        0x0 /home/maxime/Bureau/IMERIR-2019/gcc-arm-none-eabi-9-2019-q4-major/bin/../lib/gcc/arm-none-eabi/9.2.1/thumb/v7e-m+fp/hard/libgcc.a(_aeabi_ldivmod.o)
 .bss           0x000000002000009c        0x0 /home/maxime/Bureau/IMERIR-2019/gcc-arm-none-eabi-9-2019-q4-major/bin/../lib/gcc/arm-none-eabi/9.2.1/thumb/v7e-m+fp/hard/libgcc.a(_aeabi_uldivmod.o)
 .bss           0x000000002000009c        0x0 /home/maxime/Bureau/IMERIR-2019/gcc-arm-none-eabi-9-2019-q4-major/bin/../lib/gcc/arm-none-eabi/9.2.1/thumb/v7e-m+fp/hard/libgcc.a(_udivmoddi4.o)
 .bss           0x000000002000009c        0x0 /home/maxime/Bureau/IMERIR-2019/gcc-arm-none-eabi-9-2019-q4-major/bin/../lib/gcc/arm-none-eabi/9.2.1/thumb/v7e-m+fp/hard/libgcc.a(_dvmd_tls.o)
 .bss           0x000000002000009c        0x0 /home/maxime/Bureau/IMERIR-2019/gcc-arm-none-eabi-9-2019-q4-major/bin/../lib/gcc/arm-none-eabi/9.2.1/../../../../arm-none-eabi/lib/thumb/v7e-m+fp/hard/libc_nano.a(lib_a-sprintf.o)
 .bss           0x000000002000009c        0x0 /home/maxime/Bureau/IMERIR-2019/gcc-arm-none-eabi-9-2019-q4-major/bin/../lib/gcc/arm-none-eabi/9.2.1/../../../../arm-none-eabi/lib/thumb/v7e-m+fp/hard/libc_nano.a(lib_a-strlen.o)
 .bss           0x000000002000009c        0x0 /home/maxime/Bureau/IMERIR-2019/gcc-arm-none-eabi-9-2019-q4-major/bin/../lib/gcc/arm-none-eabi/9.2.1/../../../../arm-none-eabi/lib/thumb/v7e-m+fp/hard/libc_nano.a(lib_a-nano-svfprintf.o)
 .bss           0x000000002000009c        0x0 /home/maxime/Bureau/IMERIR-2019/gcc-arm-none-eabi-9-2019-q4-major/bin/../lib/gcc/arm-none-eabi/9.2.1/../../../../arm-none-eabi/lib/thumb/v7e-m+fp/hard/libc_nano.a(lib_a-nano-vfprintf_i.o)
 .bss           0x000000002000009c        0x0 /home/maxime/Bureau/IMERIR-2019/gcc-arm-none-eabi-9-2019-q4-major/bin/../lib/gcc/arm-none-eabi/9.2.1/../../../../arm-none-eabi/lib/thumb/v7e-m+fp/hard/libc_nano.a(lib_a-memchr.o)
 .bss           0x000000002000009c        0x0 /home/maxime/Bureau/IMERIR-2019/gcc-arm-none-eabi-9-2019-q4-major/bin/../lib/gcc/arm-none-eabi/9.2.1/../../../../arm-none-eabi/lib/thumb/v7e-m+fp/hard/libc_nano.a(lib_a-memcpy-stub.o)
 .bss           0x000000002000009c        0x0 /home/maxime/Bureau/IMERIR-2019/gcc-arm-none-eabi-9-2019-q4-major/bin/../lib/gcc/arm-none-eabi/9.2.1/../../../../arm-none-eabi/lib/thumb/v7e-m+fp/hard/libc_nano.a(lib_a-memmove.o)
 .bss           0x000000002000009c        0x0 /home/maxime/Bureau/IMERIR-2019/gcc-arm-none-eabi-9-2019-q4-major/bin/../lib/gcc/arm-none-eabi/9.2.1/../../../../arm-none-eabi/lib/thumb/v7e-m+fp/hard/libc_nano.a(lib_a-nano-freer.o)
 .bss           0x000000002000009c        0x0 /home/maxime/Bureau/IMERIR-2019/gcc-arm-none-eabi-9-2019-q4-major/bin/../lib/gcc/arm-none-eabi/9.2.1/../../../../arm-none-eabi/lib/thumb/v7e-m+fp/hard/libc_nano.a(lib_a-nano-mallocr.o)
 .bss           0x000000002000009c        0x0 /home/maxime/Bureau/IMERIR-2019/gcc-arm-none-eabi-9-2019-q4-major/bin/../lib/gcc/arm-none-eabi/9.2.1/../../../../arm-none-eabi/lib/thumb/v7e-m+fp/hard/libc_nano.a(lib_a-nano-reallocr.o)
 .bss           0x000000002000009c        0x0 /home/maxime/Bureau/IMERIR-2019/gcc-arm-none-eabi-9-2019-q4-major/bin/../lib/gcc/arm-none-eabi/9.2.1/../../../../arm-none-eabi/lib/thumb/v7e-m+fp/hard/libc_nano.a(lib_a-sbrkr.o)
 .bss           0x000000002000009c        0x0 /home/maxime/Bureau/IMERIR-2019/gcc-arm-none-eabi-9-2019-q4-major/bin/../lib/gcc/arm-none-eabi/9.2.1/../../../../arm-none-eabi/lib/thumb/v7e-m+fp/hard/libc_nano.a(lib_a-mlock.o)
 .bss           0x000000002000009c        0x0 /home/maxime/Bureau/IMERIR-2019/gcc-arm-none-eabi-9-2019-q4-major/bin/../lib/gcc/arm-none-eabi/9.2.1/../../../../arm-none-eabi/lib/thumb/v7e-m+fp/hard/libc_nano.a(lib_a-nano-msizer.o)
 .bss           0x000000002000009c        0x0 /home/maxime/Bureau/IMERIR-2019/gcc-arm-none-eabi-9-2019-q4-major/bin/../lib/gcc/arm-none-eabi/9.2.1/../../../../arm-none-eabi/lib/thumb/v7e-m+fp/hard/libc_nano.a(lib_a-reent.o)
 .bss           0x000000002000009c        0x0 /home/maxime/Bureau/IMERIR-2019/gcc-arm-none-eabi-9-2019-q4-major/bin/../lib/gcc/arm-none-eabi/9.2.1/../../../../arm-none-eabi/lib/thumb/v7e-m+fp/hard/libc_nano.a(lib_a-lock.o)
 .bss           0x000000002000009c        0x0 /home/maxime/Bureau/IMERIR-2019/gcc-arm-none-eabi-9-2019-q4-major/bin/../lib/gcc/arm-none-eabi/9.2.1/../../../../arm-none-eabi/lib/thumb/v7e-m+fp/hard/libnosys.a(sbrk.o)
 .bss           0x000000002000009c        0x0 /home/maxime/Bureau/IMERIR-2019/gcc-arm-none-eabi-9-2019-q4-major/bin/../lib/gcc/arm-none-eabi/9.2.1/../../../../arm-none-eabi/lib/thumb/v7e-m+fp/hard/libnosys.a(_exit.o)
 .bss           0x000000002000009c        0x0 /home/maxime/Bureau/IMERIR-2019/gcc-arm-none-eabi-9-2019-q4-major/bin/../lib/gcc/arm-none-eabi/9.2.1/thumb/v7e-m+fp/hard/crtend.o
 .bss           0x000000002000009c        0x0 /home/maxime/Bureau/IMERIR-2019/gcc-arm-none-eabi-9-2019-q4-major/bin/../lib/gcc/arm-none-eabi/9.2.1/thumb/v7e-m+fp/hard/crtn.o
 *(.bss*)
 .bss.GPIO_InitStruct
                0x000000002000009c       0x14 ./build/main.o
 .bss.acceleration_mg
                0x00000000200000b0        0xc ./build/read_data_simple.o
 .bss.angular_rate_mdps
                0x00000000200000bc        0xc ./build/read_data_simple.o
 .bss.data_raw_acceleration
                0x00000000200000c8        0x6 ./build/read_data_simple.o
 .bss.data_raw_angular_rate
                0x00000000200000ce        0x6 ./build/read_data_simple.o
 .bss.data_raw_temperature
                0x00000000200000d4        0x2 ./build/read_data_simple.o
 .bss.rst       0x00000000200000d6        0x1 ./build/read_data_simple.o
 .bss.tx_buffer
                0x00000000200000d7      0x3e8 ./build/read_data_simple.o
 .bss.whoamI    0x00000000200004bf        0x1 ./build/read_data_simple.o
 .bss.__malloc_free_list
                0x00000000200004c0        0x4 /home/maxime/Bureau/IMERIR-2019/gcc-arm-none-eabi-9-2019-q4-major/bin/../lib/gcc/arm-none-eabi/9.2.1/../../../../arm-none-eabi/lib/thumb/v7e-m+fp/hard/libc_nano.a(lib_a-nano-mallocr.o)
                0x00000000200004c0                __malloc_free_list
 .bss.__malloc_sbrk_start
                0x00000000200004c4        0x4 /home/maxime/Bureau/IMERIR-2019/gcc-arm-none-eabi-9-2019-q4-major/bin/../lib/gcc/arm-none-eabi/9.2.1/../../../../arm-none-eabi/lib/thumb/v7e-m+fp/hard/libc_nano.a(lib_a-nano-mallocr.o)
                0x00000000200004c4                __malloc_sbrk_start
 .bss.heap_end.5507
                0x00000000200004c8        0x4 /home/maxime/Bureau/IMERIR-2019/gcc-arm-none-eabi-9-2019-q4-major/bin/../lib/gcc/arm-none-eabi/9.2.1/../../../../arm-none-eabi/lib/thumb/v7e-m+fp/hard/libnosys.a(sbrk.o)
 *(COMMON)
 COMMON         0x00000000200004cc       0xcc ./build/main.o
                0x00000000200004cc                hi2c1
                0x0000000020000518                huart2
 COMMON         0x0000000020000598        0x4 ./build/stm32l4xx_hal.o
                0x0000000020000598                uwTick
 COMMON         0x000000002000059c        0x4 /home/maxime/Bureau/IMERIR-2019/gcc-arm-none-eabi-9-2019-q4-major/bin/../lib/gcc/arm-none-eabi/9.2.1/../../../../arm-none-eabi/lib/thumb/v7e-m+fp/hard/libc_nano.a(lib_a-reent.o)
                0x000000002000059c                errno
 COMMON         0x00000000200005a0        0x9 /home/maxime/Bureau/IMERIR-2019/gcc-arm-none-eabi-9-2019-q4-major/bin/../lib/gcc/arm-none-eabi/9.2.1/../../../../arm-none-eabi/lib/thumb/v7e-m+fp/hard/libc_nano.a(lib_a-lock.o)
                0x00000000200005a0                __lock___atexit_recursive_mutex
                0x00000000200005a1                __lock___arc4random_mutex
                0x00000000200005a2                __lock___env_recursive_mutex
                0x00000000200005a3                __lock___sinit_recursive_mutex
                0x00000000200005a4                __lock___malloc_recursive_mutex
                0x00000000200005a5                __lock___at_quick_exit_mutex
                0x00000000200005a6                __lock___dd_hash_mutex
                0x00000000200005a7                __lock___tz_mutex
                0x00000000200005a8                __lock___sfp_recursive_mutex
                0x00000000200005ac                . = ALIGN (0x4)
 *fill*         0x00000000200005a9        0x3 
                0x00000000200005ac                _ebss = .
                0x00000000200005ac                __bss_end__ = _ebss

._user_heap_stack
                0x00000000200005ac      0x604 load address 0x000000000800c258
                0x00000000200005b0                . = ALIGN (0x8)
 *fill*         0x00000000200005ac        0x4 
                0x00000000200005b0                PROVIDE (end = .)
                [!provide]                        PROVIDE (_end = .)
                0x00000000200007b0                . = (. + _Min_Heap_Size)
 *fill*         0x00000000200005b0      0x200 
                0x0000000020000bb0                . = (. + _Min_Stack_Size)
 *fill*         0x00000000200007b0      0x400 
                0x0000000020000bb0                . = ALIGN (0x8)

/DISCARD/
 libc.a(*)
 libm.a(*)
 libgcc.a(*)

.ARM.attributes
                0x0000000000000000       0x30
 *(.ARM.attributes)
 .ARM.attributes
                0x0000000000000000       0x1e /home/maxime/Bureau/IMERIR-2019/gcc-arm-none-eabi-9-2019-q4-major/bin/../lib/gcc/arm-none-eabi/9.2.1/thumb/v7e-m+fp/hard/crti.o
 .ARM.attributes
                0x000000000000001e       0x34 /home/maxime/Bureau/IMERIR-2019/gcc-arm-none-eabi-9-2019-q4-major/bin/../lib/gcc/arm-none-eabi/9.2.1/thumb/v7e-m+fp/hard/crtbegin.o
 .ARM.attributes
                0x0000000000000052       0x1c /home/maxime/Bureau/IMERIR-2019/gcc-arm-none-eabi-9-2019-q4-major/bin/../lib/gcc/arm-none-eabi/9.2.1/../../../../arm-none-eabi/lib/thumb/v7e-m+fp/hard/crt0.o
 .ARM.attributes
                0x000000000000006e       0x34 /home/maxime/Bureau/IMERIR-2019/gcc-arm-none-eabi-9-2019-q4-major/bin/../lib/gcc/arm-none-eabi/9.2.1/../../../../arm-none-eabi/lib/thumb/v7e-m+fp/hard/libc_nano.a(lib_a-exit.o)
 .ARM.attributes
                0x00000000000000a2       0x32 /home/maxime/Bureau/IMERIR-2019/gcc-arm-none-eabi-9-2019-q4-major/bin/../lib/gcc/arm-none-eabi/9.2.1/../../../../arm-none-eabi/lib/thumb/v7e-m+fp/hard/libc_nano.a(lib_a-impure.o)
 .ARM.attributes
                0x00000000000000d4       0x34 /home/maxime/Bureau/IMERIR-2019/gcc-arm-none-eabi-9-2019-q4-major/bin/../lib/gcc/arm-none-eabi/9.2.1/../../../../arm-none-eabi/lib/thumb/v7e-m+fp/hard/libc_nano.a(lib_a-init.o)
 .ARM.attributes
                0x0000000000000108       0x34 /home/maxime/Bureau/IMERIR-2019/gcc-arm-none-eabi-9-2019-q4-major/bin/../lib/gcc/arm-none-eabi/9.2.1/../../../../arm-none-eabi/lib/thumb/v7e-m+fp/hard/libc_nano.a(lib_a-memset.o)
 .ARM.attributes
                0x000000000000013c       0x34 ./build/main.o
 .ARM.attributes
                0x0000000000000170       0x34 ./build/read_data_simple.o
 .ARM.attributes
                0x00000000000001a4       0x34 ./build/stm32l4xx_nucleo.o
 .ARM.attributes
                0x00000000000001d8       0x34 ./build/lsm6dso_reg.o
 .ARM.attributes
                0x000000000000020c       0x34 ./build/stm32l4xx_hal_i2c_ex.o
 .ARM.attributes
                0x0000000000000240       0x34 ./build/stm32l4xx_hal.o
 .ARM.attributes
                0x0000000000000274       0x34 ./build/stm32l4xx_hal_cortex.o
 .ARM.attributes
                0x00000000000002a8       0x34 ./build/stm32l4xx_hal_rcc.o
 .ARM.attributes
                0x00000000000002dc       0x34 ./build/stm32l4xx_hal_pwr_ex.o
 .ARM.attributes
                0x0000000000000310       0x34 ./build/stm32l4xx_hal_gpio.o
 .ARM.attributes
                0x0000000000000344       0x34 ./build/stm32l4xx_hal_pwr.o
 .ARM.attributes
                0x0000000000000378       0x34 ./build/stm32l4xx_hal_uart.o
 .ARM.attributes
                0x00000000000003ac       0x34 ./build/stm32l4xx_hal_dma.o
 .ARM.attributes
                0x00000000000003e0       0x34 ./build/stm32l4xx_hal_uart_ex.o
 .ARM.attributes
                0x0000000000000414       0x39 ./build/stm32l4xx_hal_wwdg.o
 .ARM.attributes
                0x000000000000044d       0x34 ./build/stm32l4xx_hal_i2c.o
 .ARM.attributes
                0x0000000000000481       0x34 ./build/system_stm32l4xx.o
 .ARM.attributes
                0x00000000000004b5       0x21 build/stm32l476_startup.o
 .ARM.attributes
                0x00000000000004d6       0x1e /home/maxime/Bureau/IMERIR-2019/gcc-arm-none-eabi-9-2019-q4-major/bin/../lib/gcc/arm-none-eabi/9.2.1/thumb/v7e-m+fp/hard/libgcc.a(_arm_addsubdf3.o)
 .ARM.attributes
                0x00000000000004f4       0x1e /home/maxime/Bureau/IMERIR-2019/gcc-arm-none-eabi-9-2019-q4-major/bin/../lib/gcc/arm-none-eabi/9.2.1/thumb/v7e-m+fp/hard/libgcc.a(_aeabi_ldivmod.o)
 .ARM.attributes
                0x0000000000000512       0x1e /home/maxime/Bureau/IMERIR-2019/gcc-arm-none-eabi-9-2019-q4-major/bin/../lib/gcc/arm-none-eabi/9.2.1/thumb/v7e-m+fp/hard/libgcc.a(_aeabi_uldivmod.o)
 .ARM.attributes
                0x0000000000000530       0x34 /home/maxime/Bureau/IMERIR-2019/gcc-arm-none-eabi-9-2019-q4-major/bin/../lib/gcc/arm-none-eabi/9.2.1/thumb/v7e-m+fp/hard/libgcc.a(_udivmoddi4.o)
 .ARM.attributes
                0x0000000000000564       0x1e /home/maxime/Bureau/IMERIR-2019/gcc-arm-none-eabi-9-2019-q4-major/bin/../lib/gcc/arm-none-eabi/9.2.1/thumb/v7e-m+fp/hard/libgcc.a(_dvmd_tls.o)
 .ARM.attributes
                0x0000000000000582       0x34 /home/maxime/Bureau/IMERIR-2019/gcc-arm-none-eabi-9-2019-q4-major/bin/../lib/gcc/arm-none-eabi/9.2.1/../../../../arm-none-eabi/lib/thumb/v7e-m+fp/hard/libc_nano.a(lib_a-sprintf.o)
 .ARM.attributes
                0x00000000000005b6       0x17 /home/maxime/Bureau/IMERIR-2019/gcc-arm-none-eabi-9-2019-q4-major/bin/../lib/gcc/arm-none-eabi/9.2.1/../../../../arm-none-eabi/lib/thumb/v7e-m+fp/hard/libc_nano.a(lib_a-strlen.o)
 .ARM.attributes
                0x00000000000005cd       0x34 /home/maxime/Bureau/IMERIR-2019/gcc-arm-none-eabi-9-2019-q4-major/bin/../lib/gcc/arm-none-eabi/9.2.1/../../../../arm-none-eabi/lib/thumb/v7e-m+fp/hard/libc_nano.a(lib_a-nano-svfprintf.o)
 .ARM.attributes
                0x0000000000000601       0x34 /home/maxime/Bureau/IMERIR-2019/gcc-arm-none-eabi-9-2019-q4-major/bin/../lib/gcc/arm-none-eabi/9.2.1/../../../../arm-none-eabi/lib/thumb/v7e-m+fp/hard/libc_nano.a(lib_a-nano-vfprintf_i.o)
 .ARM.attributes
                0x0000000000000635       0x1c /home/maxime/Bureau/IMERIR-2019/gcc-arm-none-eabi-9-2019-q4-major/bin/../lib/gcc/arm-none-eabi/9.2.1/../../../../arm-none-eabi/lib/thumb/v7e-m+fp/hard/libc_nano.a(lib_a-memchr.o)
 .ARM.attributes
                0x0000000000000651       0x34 /home/maxime/Bureau/IMERIR-2019/gcc-arm-none-eabi-9-2019-q4-major/bin/../lib/gcc/arm-none-eabi/9.2.1/../../../../arm-none-eabi/lib/thumb/v7e-m+fp/hard/libc_nano.a(lib_a-memcpy-stub.o)
 .ARM.attributes
                0x0000000000000685       0x34 /home/maxime/Bureau/IMERIR-2019/gcc-arm-none-eabi-9-2019-q4-major/bin/../lib/gcc/arm-none-eabi/9.2.1/../../../../arm-none-eabi/lib/thumb/v7e-m+fp/hard/libc_nano.a(lib_a-memmove.o)
 .ARM.attributes
                0x00000000000006b9       0x34 /home/maxime/Bureau/IMERIR-2019/gcc-arm-none-eabi-9-2019-q4-major/bin/../lib/gcc/arm-none-eabi/9.2.1/../../../../arm-none-eabi/lib/thumb/v7e-m+fp/hard/libc_nano.a(lib_a-nano-freer.o)
 .ARM.attributes
                0x00000000000006ed       0x34 /home/maxime/Bureau/IMERIR-2019/gcc-arm-none-eabi-9-2019-q4-major/bin/../lib/gcc/arm-none-eabi/9.2.1/../../../../arm-none-eabi/lib/thumb/v7e-m+fp/hard/libc_nano.a(lib_a-nano-mallocr.o)
 .ARM.attributes
                0x0000000000000721       0x34 /home/maxime/Bureau/IMERIR-2019/gcc-arm-none-eabi-9-2019-q4-major/bin/../lib/gcc/arm-none-eabi/9.2.1/../../../../arm-none-eabi/lib/thumb/v7e-m+fp/hard/libc_nano.a(lib_a-nano-reallocr.o)
 .ARM.attributes
                0x0000000000000755       0x34 /home/maxime/Bureau/IMERIR-2019/gcc-arm-none-eabi-9-2019-q4-major/bin/../lib/gcc/arm-none-eabi/9.2.1/../../../../arm-none-eabi/lib/thumb/v7e-m+fp/hard/libc_nano.a(lib_a-sbrkr.o)
 .ARM.attributes
                0x0000000000000789       0x34 /home/maxime/Bureau/IMERIR-2019/gcc-arm-none-eabi-9-2019-q4-major/bin/../lib/gcc/arm-none-eabi/9.2.1/../../../../arm-none-eabi/lib/thumb/v7e-m+fp/hard/libc_nano.a(lib_a-mlock.o)
 .ARM.attributes
                0x00000000000007bd       0x34 /home/maxime/Bureau/IMERIR-2019/gcc-arm-none-eabi-9-2019-q4-major/bin/../lib/gcc/arm-none-eabi/9.2.1/../../../../arm-none-eabi/lib/thumb/v7e-m+fp/hard/libc_nano.a(lib_a-nano-msizer.o)
 .ARM.attributes
                0x00000000000007f1       0x34 /home/maxime/Bureau/IMERIR-2019/gcc-arm-none-eabi-9-2019-q4-major/bin/../lib/gcc/arm-none-eabi/9.2.1/../../../../arm-none-eabi/lib/thumb/v7e-m+fp/hard/libc_nano.a(lib_a-reent.o)
 .ARM.attributes
                0x0000000000000825       0x34 /home/maxime/Bureau/IMERIR-2019/gcc-arm-none-eabi-9-2019-q4-major/bin/../lib/gcc/arm-none-eabi/9.2.1/../../../../arm-none-eabi/lib/thumb/v7e-m+fp/hard/libc_nano.a(lib_a-lock.o)
 .ARM.attributes
                0x0000000000000859       0x34 /home/maxime/Bureau/IMERIR-2019/gcc-arm-none-eabi-9-2019-q4-major/bin/../lib/gcc/arm-none-eabi/9.2.1/../../../../arm-none-eabi/lib/thumb/v7e-m+fp/hard/libnosys.a(sbrk.o)
 .ARM.attributes
                0x000000000000088d       0x34 /home/maxime/Bureau/IMERIR-2019/gcc-arm-none-eabi-9-2019-q4-major/bin/../lib/gcc/arm-none-eabi/9.2.1/../../../../arm-none-eabi/lib/thumb/v7e-m+fp/hard/libnosys.a(_exit.o)
 .ARM.attributes
                0x00000000000008c1       0x32 /home/maxime/Bureau/IMERIR-2019/gcc-arm-none-eabi-9-2019-q4-major/bin/../lib/gcc/arm-none-eabi/9.2.1/thumb/v7e-m+fp/hard/crtend.o
 .ARM.attributes
                0x00000000000008f3       0x1e /home/maxime/Bureau/IMERIR-2019/gcc-arm-none-eabi-9-2019-q4-major/bin/../lib/gcc/arm-none-eabi/9.2.1/thumb/v7e-m+fp/hard/crtn.o
OUTPUT(./build/test.elf elf32-littlearm)

.debug_frame    0x0000000000000000      0x5dc
 .debug_frame   0x0000000000000000       0x28 /home/maxime/Bureau/IMERIR-2019/gcc-arm-none-eabi-9-2019-q4-major/bin/../lib/gcc/arm-none-eabi/9.2.1/../../../../arm-none-eabi/lib/thumb/v7e-m+fp/hard/libc_nano.a(lib_a-exit.o)
 .debug_frame   0x0000000000000028       0x2c /home/maxime/Bureau/IMERIR-2019/gcc-arm-none-eabi-9-2019-q4-major/bin/../lib/gcc/arm-none-eabi/9.2.1/../../../../arm-none-eabi/lib/thumb/v7e-m+fp/hard/libc_nano.a(lib_a-init.o)
 .debug_frame   0x0000000000000054       0x20 /home/maxime/Bureau/IMERIR-2019/gcc-arm-none-eabi-9-2019-q4-major/bin/../lib/gcc/arm-none-eabi/9.2.1/../../../../arm-none-eabi/lib/thumb/v7e-m+fp/hard/libc_nano.a(lib_a-memset.o)
 .debug_frame   0x0000000000000074       0xac /home/maxime/Bureau/IMERIR-2019/gcc-arm-none-eabi-9-2019-q4-major/bin/../lib/gcc/arm-none-eabi/9.2.1/thumb/v7e-m+fp/hard/libgcc.a(_arm_addsubdf3.o)
 .debug_frame   0x0000000000000120       0x44 /home/maxime/Bureau/IMERIR-2019/gcc-arm-none-eabi-9-2019-q4-major/bin/../lib/gcc/arm-none-eabi/9.2.1/thumb/v7e-m+fp/hard/libgcc.a(_aeabi_ldivmod.o)
 .debug_frame   0x0000000000000164       0x2c /home/maxime/Bureau/IMERIR-2019/gcc-arm-none-eabi-9-2019-q4-major/bin/../lib/gcc/arm-none-eabi/9.2.1/thumb/v7e-m+fp/hard/libgcc.a(_aeabi_uldivmod.o)
 .debug_frame   0x0000000000000190       0x34 /home/maxime/Bureau/IMERIR-2019/gcc-arm-none-eabi-9-2019-q4-major/bin/../lib/gcc/arm-none-eabi/9.2.1/thumb/v7e-m+fp/hard/libgcc.a(_udivmoddi4.o)
 .debug_frame   0x00000000000001c4       0x6c /home/maxime/Bureau/IMERIR-2019/gcc-arm-none-eabi-9-2019-q4-major/bin/../lib/gcc/arm-none-eabi/9.2.1/../../../../arm-none-eabi/lib/thumb/v7e-m+fp/hard/libc_nano.a(lib_a-sprintf.o)
 .debug_frame   0x0000000000000230       0x90 /home/maxime/Bureau/IMERIR-2019/gcc-arm-none-eabi-9-2019-q4-major/bin/../lib/gcc/arm-none-eabi/9.2.1/../../../../arm-none-eabi/lib/thumb/v7e-m+fp/hard/libc_nano.a(lib_a-nano-svfprintf.o)
 .debug_frame   0x00000000000002c0       0x60 /home/maxime/Bureau/IMERIR-2019/gcc-arm-none-eabi-9-2019-q4-major/bin/../lib/gcc/arm-none-eabi/9.2.1/../../../../arm-none-eabi/lib/thumb/v7e-m+fp/hard/libc_nano.a(lib_a-nano-vfprintf_i.o)
 .debug_frame   0x0000000000000320       0x28 /home/maxime/Bureau/IMERIR-2019/gcc-arm-none-eabi-9-2019-q4-major/bin/../lib/gcc/arm-none-eabi/9.2.1/../../../../arm-none-eabi/lib/thumb/v7e-m+fp/hard/libc_nano.a(lib_a-memcpy-stub.o)
 .debug_frame   0x0000000000000348       0x28 /home/maxime/Bureau/IMERIR-2019/gcc-arm-none-eabi-9-2019-q4-major/bin/../lib/gcc/arm-none-eabi/9.2.1/../../../../arm-none-eabi/lib/thumb/v7e-m+fp/hard/libc_nano.a(lib_a-memmove.o)
 .debug_frame   0x0000000000000370       0x38 /home/maxime/Bureau/IMERIR-2019/gcc-arm-none-eabi-9-2019-q4-major/bin/../lib/gcc/arm-none-eabi/9.2.1/../../../../arm-none-eabi/lib/thumb/v7e-m+fp/hard/libc_nano.a(lib_a-nano-freer.o)
 .debug_frame   0x00000000000003a8       0x30 /home/maxime/Bureau/IMERIR-2019/gcc-arm-none-eabi-9-2019-q4-major/bin/../lib/gcc/arm-none-eabi/9.2.1/../../../../arm-none-eabi/lib/thumb/v7e-m+fp/hard/libc_nano.a(lib_a-nano-mallocr.o)
 .debug_frame   0x00000000000003d8       0x3c /home/maxime/Bureau/IMERIR-2019/gcc-arm-none-eabi-9-2019-q4-major/bin/../lib/gcc/arm-none-eabi/9.2.1/../../../../arm-none-eabi/lib/thumb/v7e-m+fp/hard/libc_nano.a(lib_a-nano-reallocr.o)
 .debug_frame   0x0000000000000414       0x2c /home/maxime/Bureau/IMERIR-2019/gcc-arm-none-eabi-9-2019-q4-major/bin/../lib/gcc/arm-none-eabi/9.2.1/../../../../arm-none-eabi/lib/thumb/v7e-m+fp/hard/libc_nano.a(lib_a-sbrkr.o)
 .debug_frame   0x0000000000000440       0x30 /home/maxime/Bureau/IMERIR-2019/gcc-arm-none-eabi-9-2019-q4-major/bin/../lib/gcc/arm-none-eabi/9.2.1/../../../../arm-none-eabi/lib/thumb/v7e-m+fp/hard/libc_nano.a(lib_a-mlock.o)
 .debug_frame   0x0000000000000470       0x20 /home/maxime/Bureau/IMERIR-2019/gcc-arm-none-eabi-9-2019-q4-major/bin/../lib/gcc/arm-none-eabi/9.2.1/../../../../arm-none-eabi/lib/thumb/v7e-m+fp/hard/libc_nano.a(lib_a-nano-msizer.o)
 .debug_frame   0x0000000000000490       0x5c /home/maxime/Bureau/IMERIR-2019/gcc-arm-none-eabi-9-2019-q4-major/bin/../lib/gcc/arm-none-eabi/9.2.1/../../../../arm-none-eabi/lib/thumb/v7e-m+fp/hard/libc_nano.a(lib_a-reent.o)
 .debug_frame   0x00000000000004ec       0xb0 /home/maxime/Bureau/IMERIR-2019/gcc-arm-none-eabi-9-2019-q4-major/bin/../lib/gcc/arm-none-eabi/9.2.1/../../../../arm-none-eabi/lib/thumb/v7e-m+fp/hard/libc_nano.a(lib_a-lock.o)
 .debug_frame   0x000000000000059c       0x20 /home/maxime/Bureau/IMERIR-2019/gcc-arm-none-eabi-9-2019-q4-major/bin/../lib/gcc/arm-none-eabi/9.2.1/../../../../arm-none-eabi/lib/thumb/v7e-m+fp/hard/libnosys.a(sbrk.o)
 .debug_frame   0x00000000000005bc       0x20 /home/maxime/Bureau/IMERIR-2019/gcc-arm-none-eabi-9-2019-q4-major/bin/../lib/gcc/arm-none-eabi/9.2.1/../../../../arm-none-eabi/lib/thumb/v7e-m+fp/hard/libnosys.a(_exit.o)

.comment        0x0000000000000000       0x79
 .comment       0x0000000000000000       0x79 ./build/main.o
                                         0x7a (size before relaxing)
 .comment       0x0000000000000079       0x7a ./build/read_data_simple.o
 .comment       0x0000000000000079       0x7a ./build/stm32l4xx_nucleo.o
 .comment       0x0000000000000079       0x7a ./build/lsm6dso_reg.o
 .comment       0x0000000000000079       0x7a ./build/stm32l4xx_hal_i2c_ex.o
 .comment       0x0000000000000079       0x7a ./build/stm32l4xx_hal.o
 .comment       0x0000000000000079       0x7a ./build/stm32l4xx_hal_cortex.o
 .comment       0x0000000000000079       0x7a ./build/stm32l4xx_hal_rcc.o
 .comment       0x0000000000000079       0x7a ./build/stm32l4xx_hal_pwr_ex.o
 .comment       0x0000000000000079       0x7a ./build/stm32l4xx_hal_gpio.o
 .comment       0x0000000000000079       0x7a ./build/stm32l4xx_hal_pwr.o
 .comment       0x0000000000000079       0x7a ./build/stm32l4xx_hal_uart.o
 .comment       0x0000000000000079       0x7a ./build/stm32l4xx_hal_dma.o
 .comment       0x0000000000000079       0x7a ./build/stm32l4xx_hal_uart_ex.o
 .comment       0x0000000000000079       0x7a ./build/stm32l4xx_hal_wwdg.o
 .comment       0x0000000000000079       0x7a ./build/stm32l4xx_hal_i2c.o
 .comment       0x0000000000000079       0x7a ./build/system_stm32l4xx.o

Cross Reference Table

Symbol                                            File
ADC1_2_IRQHandler                                 build/stm32l476_startup.o
ADC3_IRQHandler                                   build/stm32l476_startup.o
AHBPrescTable                                     ./build/system_stm32l4xx.o
                                                  ./build/stm32l4xx_hal_rcc.o
APBPrescTable                                     ./build/system_stm32l4xx.o
                                                  ./build/stm32l4xx_hal_rcc.o
BSP_GetVersion                                    ./build/stm32l4xx_nucleo.o
BSP_LED_DeInit                                    ./build/stm32l4xx_nucleo.o
BSP_LED_Init                                      ./build/stm32l4xx_nucleo.o
BSP_LED_Off                                       ./build/stm32l4xx_nucleo.o
BSP_LED_On                                        ./build/stm32l4xx_nucleo.o
                                                  ./build/main.o
BSP_LED_Toggle                                    ./build/stm32l4xx_nucleo.o
BSP_PB_DeInit                                     ./build/stm32l4xx_nucleo.o
BSP_PB_GetState                                   ./build/stm32l4xx_nucleo.o
BSP_PB_Init                                       ./build/stm32l4xx_nucleo.o
BUTTON_IRQn                                       ./build/stm32l4xx_nucleo.o
BUTTON_PIN                                        ./build/stm32l4xx_nucleo.o
BUTTON_PORT                                       ./build/stm32l4xx_nucleo.o
BusFault_Handler                                  build/stm32l476_startup.o
CAN1_RX0_IRQHandler                               build/stm32l476_startup.o
CAN1_RX1_IRQHandler                               build/stm32l476_startup.o
CAN1_SCE_IRQHandler                               build/stm32l476_startup.o
CAN1_TX_IRQHandler                                build/stm32l476_startup.o
COMP_IRQHandler                                   build/stm32l476_startup.o
DFSDM1_FLT0_IRQHandler                            build/stm32l476_startup.o
DFSDM1_FLT1_IRQHandler                            build/stm32l476_startup.o
DFSDM1_FLT2_IRQHandler                            build/stm32l476_startup.o
DFSDM1_FLT3_IRQHandler                            build/stm32l476_startup.o
DMA1_Channel1_IRQHandler                          build/stm32l476_startup.o
DMA1_Channel2_IRQHandler                          build/stm32l476_startup.o
DMA1_Channel3_IRQHandler                          build/stm32l476_startup.o
DMA1_Channel4_IRQHandler                          build/stm32l476_startup.o
DMA1_Channel5_IRQHandler                          build/stm32l476_startup.o
DMA1_Channel6_IRQHandler                          build/stm32l476_startup.o
DMA1_Channel7_IRQHandler                          build/stm32l476_startup.o
DMA2_Channel1_IRQHandler                          build/stm32l476_startup.o
DMA2_Channel2_IRQHandler                          build/stm32l476_startup.o
DMA2_Channel3_IRQHandler                          build/stm32l476_startup.o
DMA2_Channel4_IRQHandler                          build/stm32l476_startup.o
DMA2_Channel5_IRQHandler                          build/stm32l476_startup.o
DMA2_Channel6_IRQHandler                          build/stm32l476_startup.o
DMA2_Channel7_IRQHandler                          build/stm32l476_startup.o
DebugMon_Handler                                  build/stm32l476_startup.o
Default_Handler                                   build/stm32l476_startup.o
EXTI0_IRQHandler                                  build/stm32l476_startup.o
EXTI15_10_IRQHandler                              build/stm32l476_startup.o
EXTI1_IRQHandler                                  build/stm32l476_startup.o
EXTI2_IRQHandler                                  build/stm32l476_startup.o
EXTI3_IRQHandler                                  build/stm32l476_startup.o
EXTI4_IRQHandler                                  build/stm32l476_startup.o
EXTI9_5_IRQHandler                                build/stm32l476_startup.o
FLASH_IRQHandler                                  build/stm32l476_startup.o
FMC_IRQHandler                                    build/stm32l476_startup.o
FPU_IRQHandler                                    build/stm32l476_startup.o
GPIO_PIN                                          ./build/stm32l4xx_nucleo.o
GPIO_PORT                                         ./build/stm32l4xx_nucleo.o
HAL_DBGMCU_DisableDBGSleepMode                    ./build/stm32l4xx_hal.o
HAL_DBGMCU_DisableDBGStandbyMode                  ./build/stm32l4xx_hal.o
HAL_DBGMCU_DisableDBGStopMode                     ./build/stm32l4xx_hal.o
HAL_DBGMCU_EnableDBGSleepMode                     ./build/stm32l4xx_hal.o
HAL_DBGMCU_EnableDBGStandbyMode                   ./build/stm32l4xx_hal.o
HAL_DBGMCU_EnableDBGStopMode                      ./build/stm32l4xx_hal.o
HAL_DMA_Abort                                     ./build/stm32l4xx_hal_dma.o
                                                  ./build/stm32l4xx_hal_uart.o
HAL_DMA_Abort_IT                                  ./build/stm32l4xx_hal_dma.o
                                                  ./build/stm32l4xx_hal_i2c.o
                                                  ./build/stm32l4xx_hal_uart.o
HAL_DMA_DeInit                                    ./build/stm32l4xx_hal_dma.o
HAL_DMA_GetError                                  ./build/stm32l4xx_hal_dma.o
                                                  ./build/stm32l4xx_hal_uart.o
HAL_DMA_GetState                                  ./build/stm32l4xx_hal_dma.o
HAL_DMA_IRQHandler                                ./build/stm32l4xx_hal_dma.o
HAL_DMA_Init                                      ./build/stm32l4xx_hal_dma.o
HAL_DMA_PollForTransfer                           ./build/stm32l4xx_hal_dma.o
HAL_DMA_RegisterCallback                          ./build/stm32l4xx_hal_dma.o
HAL_DMA_Start                                     ./build/stm32l4xx_hal_dma.o
HAL_DMA_Start_IT                                  ./build/stm32l4xx_hal_dma.o
                                                  ./build/stm32l4xx_hal_i2c.o
                                                  ./build/stm32l4xx_hal_uart.o
HAL_DMA_UnRegisterCallback                        ./build/stm32l4xx_hal_dma.o
HAL_DeInit                                        ./build/stm32l4xx_hal.o
HAL_Delay                                         ./build/stm32l4xx_hal.o
                                                  ./build/main.o
HAL_GPIO_DeInit                                   ./build/stm32l4xx_hal_gpio.o
                                                  ./build/stm32l4xx_nucleo.o
HAL_GPIO_EXTI_Callback                            ./build/stm32l4xx_hal_gpio.o
HAL_GPIO_EXTI_IRQHandler                          ./build/stm32l4xx_hal_gpio.o
HAL_GPIO_Init                                     ./build/stm32l4xx_hal_gpio.o
                                                  ./build/stm32l4xx_hal_rcc.o
                                                  ./build/stm32l4xx_nucleo.o
                                                  ./build/main.o
HAL_GPIO_LockPin                                  ./build/stm32l4xx_hal_gpio.o
HAL_GPIO_ReadPin                                  ./build/stm32l4xx_hal_gpio.o
                                                  ./build/stm32l4xx_nucleo.o
HAL_GPIO_TogglePin                                ./build/stm32l4xx_hal_gpio.o
                                                  ./build/stm32l4xx_nucleo.o
                                                  ./build/main.o
HAL_GPIO_WritePin                                 ./build/stm32l4xx_hal_gpio.o
                                                  ./build/stm32l4xx_nucleo.o
HAL_GetDEVID                                      ./build/stm32l4xx_hal.o
HAL_GetHalVersion                                 ./build/stm32l4xx_hal.o
HAL_GetREVID                                      ./build/stm32l4xx_hal.o
HAL_GetTick                                       ./build/stm32l4xx_hal.o
                                                  ./build/stm32l4xx_hal_i2c.o
                                                  ./build/stm32l4xx_hal_uart_ex.o
                                                  ./build/stm32l4xx_hal_dma.o
                                                  ./build/stm32l4xx_hal_uart.o
                                                  ./build/stm32l4xx_hal_rcc.o
HAL_GetTickFreq                                   ./build/stm32l4xx_hal.o
HAL_GetTickPrio                                   ./build/stm32l4xx_hal.o
HAL_GetUIDw0                                      ./build/stm32l4xx_hal.o
HAL_GetUIDw1                                      ./build/stm32l4xx_hal.o
HAL_GetUIDw2                                      ./build/stm32l4xx_hal.o
HAL_HalfDuplex_EnableReceiver                     ./build/stm32l4xx_hal_uart.o
HAL_HalfDuplex_EnableTransmitter                  ./build/stm32l4xx_hal_uart.o
HAL_HalfDuplex_Init                               ./build/stm32l4xx_hal_uart.o
HAL_I2CEx_ConfigAnalogFilter                      ./build/stm32l4xx_hal_i2c_ex.o
                                                  ./build/main.o
HAL_I2CEx_ConfigDigitalFilter                     ./build/stm32l4xx_hal_i2c_ex.o
HAL_I2CEx_DisableFastModePlus                     ./build/stm32l4xx_hal_i2c_ex.o
HAL_I2CEx_DisableWakeUp                           ./build/stm32l4xx_hal_i2c_ex.o
HAL_I2CEx_EnableFastModePlus                      ./build/stm32l4xx_hal_i2c_ex.o
HAL_I2CEx_EnableWakeUp                            ./build/stm32l4xx_hal_i2c_ex.o
HAL_I2C_AbortCpltCallback                         ./build/stm32l4xx_hal_i2c.o
HAL_I2C_AddrCallback                              ./build/stm32l4xx_hal_i2c.o
HAL_I2C_DeInit                                    ./build/stm32l4xx_hal_i2c.o
HAL_I2C_DisableListen_IT                          ./build/stm32l4xx_hal_i2c.o
HAL_I2C_ER_IRQHandler                             ./build/stm32l4xx_hal_i2c.o
HAL_I2C_EV_IRQHandler                             ./build/stm32l4xx_hal_i2c.o
HAL_I2C_EnableListen_IT                           ./build/stm32l4xx_hal_i2c.o
HAL_I2C_ErrorCallback                             ./build/stm32l4xx_hal_i2c.o
HAL_I2C_GetError                                  ./build/stm32l4xx_hal_i2c.o
HAL_I2C_GetMode                                   ./build/stm32l4xx_hal_i2c.o
HAL_I2C_GetState                                  ./build/stm32l4xx_hal_i2c.o
HAL_I2C_Init                                      ./build/stm32l4xx_hal_i2c.o
                                                  ./build/main.o
HAL_I2C_IsDeviceReady                             ./build/stm32l4xx_hal_i2c.o
HAL_I2C_ListenCpltCallback                        ./build/stm32l4xx_hal_i2c.o
HAL_I2C_MasterRxCpltCallback                      ./build/stm32l4xx_hal_i2c.o
HAL_I2C_MasterTxCpltCallback                      ./build/stm32l4xx_hal_i2c.o
HAL_I2C_Master_Abort_IT                           ./build/stm32l4xx_hal_i2c.o
HAL_I2C_Master_Receive                            ./build/stm32l4xx_hal_i2c.o
HAL_I2C_Master_Receive_DMA                        ./build/stm32l4xx_hal_i2c.o
HAL_I2C_Master_Receive_IT                         ./build/stm32l4xx_hal_i2c.o
HAL_I2C_Master_Seq_Receive_DMA                    ./build/stm32l4xx_hal_i2c.o
HAL_I2C_Master_Seq_Receive_IT                     ./build/stm32l4xx_hal_i2c.o
HAL_I2C_Master_Seq_Transmit_DMA                   ./build/stm32l4xx_hal_i2c.o
HAL_I2C_Master_Seq_Transmit_IT                    ./build/stm32l4xx_hal_i2c.o
HAL_I2C_Master_Transmit                           ./build/stm32l4xx_hal_i2c.o
HAL_I2C_Master_Transmit_DMA                       ./build/stm32l4xx_hal_i2c.o
HAL_I2C_Master_Transmit_IT                        ./build/stm32l4xx_hal_i2c.o
HAL_I2C_MemRxCpltCallback                         ./build/stm32l4xx_hal_i2c.o
HAL_I2C_MemTxCpltCallback                         ./build/stm32l4xx_hal_i2c.o
HAL_I2C_Mem_Read                                  ./build/stm32l4xx_hal_i2c.o
                                                  ./build/read_data_simple.o
HAL_I2C_Mem_Read_DMA                              ./build/stm32l4xx_hal_i2c.o
HAL_I2C_Mem_Read_IT                               ./build/stm32l4xx_hal_i2c.o
HAL_I2C_Mem_Write                                 ./build/stm32l4xx_hal_i2c.o
                                                  ./build/read_data_simple.o
HAL_I2C_Mem_Write_DMA                             ./build/stm32l4xx_hal_i2c.o
HAL_I2C_Mem_Write_IT                              ./build/stm32l4xx_hal_i2c.o
HAL_I2C_MspDeInit                                 ./build/stm32l4xx_hal_i2c.o
HAL_I2C_MspInit                                   ./build/stm32l4xx_hal_i2c.o
HAL_I2C_SlaveRxCpltCallback                       ./build/stm32l4xx_hal_i2c.o
HAL_I2C_SlaveTxCpltCallback                       ./build/stm32l4xx_hal_i2c.o
HAL_I2C_Slave_Receive                             ./build/stm32l4xx_hal_i2c.o
HAL_I2C_Slave_Receive_DMA                         ./build/stm32l4xx_hal_i2c.o
HAL_I2C_Slave_Receive_IT                          ./build/stm32l4xx_hal_i2c.o
HAL_I2C_Slave_Seq_Receive_DMA                     ./build/stm32l4xx_hal_i2c.o
HAL_I2C_Slave_Seq_Receive_IT                      ./build/stm32l4xx_hal_i2c.o
HAL_I2C_Slave_Seq_Transmit_DMA                    ./build/stm32l4xx_hal_i2c.o
HAL_I2C_Slave_Seq_Transmit_IT                     ./build/stm32l4xx_hal_i2c.o
HAL_I2C_Slave_Transmit                            ./build/stm32l4xx_hal_i2c.o
HAL_I2C_Slave_Transmit_DMA                        ./build/stm32l4xx_hal_i2c.o
HAL_I2C_Slave_Transmit_IT                         ./build/stm32l4xx_hal_i2c.o
HAL_IncTick                                       ./build/stm32l4xx_hal.o
HAL_Init                                          ./build/stm32l4xx_hal.o
                                                  ./build/main.o
HAL_InitTick                                      ./build/stm32l4xx_hal.o
                                                  ./build/stm32l4xx_hal_rcc.o
HAL_LIN_Init                                      ./build/stm32l4xx_hal_uart.o
HAL_LIN_SendBreak                                 ./build/stm32l4xx_hal_uart.o
HAL_MPU_ConfigRegion                              ./build/stm32l4xx_hal_cortex.o
HAL_MPU_Disable                                   ./build/stm32l4xx_hal_cortex.o
HAL_MPU_Enable                                    ./build/stm32l4xx_hal_cortex.o
HAL_MspDeInit                                     ./build/stm32l4xx_hal.o
HAL_MspInit                                       ./build/stm32l4xx_hal.o
HAL_MultiProcessorEx_AddressLength_Set            ./build/stm32l4xx_hal_uart_ex.o
HAL_MultiProcessor_DisableMuteMode                ./build/stm32l4xx_hal_uart.o
HAL_MultiProcessor_EnableMuteMode                 ./build/stm32l4xx_hal_uart.o
HAL_MultiProcessor_EnterMuteMode                  ./build/stm32l4xx_hal_uart.o
HAL_MultiProcessor_Init                           ./build/stm32l4xx_hal_uart.o
HAL_NVIC_ClearPendingIRQ                          ./build/stm32l4xx_hal_cortex.o
HAL_NVIC_DisableIRQ                               ./build/stm32l4xx_hal_cortex.o
                                                  ./build/stm32l4xx_nucleo.o
HAL_NVIC_EnableIRQ                                ./build/stm32l4xx_hal_cortex.o
                                                  ./build/stm32l4xx_nucleo.o
HAL_NVIC_GetActive                                ./build/stm32l4xx_hal_cortex.o
HAL_NVIC_GetPendingIRQ                            ./build/stm32l4xx_hal_cortex.o
HAL_NVIC_GetPriority                              ./build/stm32l4xx_hal_cortex.o
HAL_NVIC_GetPriorityGrouping                      ./build/stm32l4xx_hal_cortex.o
HAL_NVIC_SetPendingIRQ                            ./build/stm32l4xx_hal_cortex.o
HAL_NVIC_SetPriority                              ./build/stm32l4xx_hal_cortex.o
                                                  ./build/stm32l4xx_hal.o
                                                  ./build/stm32l4xx_nucleo.o
HAL_NVIC_SetPriorityGrouping                      ./build/stm32l4xx_hal_cortex.o
                                                  ./build/stm32l4xx_hal.o
HAL_NVIC_SystemReset                              ./build/stm32l4xx_hal_cortex.o
HAL_PWREx_ConfigPVM                               ./build/stm32l4xx_hal_pwr_ex.o
HAL_PWREx_ControlVoltageScaling                   ./build/stm32l4xx_hal_pwr_ex.o
HAL_PWREx_DisableBatteryCharging                  ./build/stm32l4xx_hal_pwr_ex.o
HAL_PWREx_DisableGPIOPullDown                     ./build/stm32l4xx_hal_pwr_ex.o
HAL_PWREx_DisableGPIOPullUp                       ./build/stm32l4xx_hal_pwr_ex.o
HAL_PWREx_DisableInternalWakeUpLine               ./build/stm32l4xx_hal_pwr_ex.o
HAL_PWREx_DisableLowPowerRunMode                  ./build/stm32l4xx_hal_pwr_ex.o
                                                  ./build/stm32l4xx_hal_pwr.o
HAL_PWREx_DisablePVM1                             ./build/stm32l4xx_hal_pwr_ex.o
HAL_PWREx_DisablePVM2                             ./build/stm32l4xx_hal_pwr_ex.o
HAL_PWREx_DisablePVM3                             ./build/stm32l4xx_hal_pwr_ex.o
HAL_PWREx_DisablePVM4                             ./build/stm32l4xx_hal_pwr_ex.o
HAL_PWREx_DisablePullUpPullDownConfig             ./build/stm32l4xx_hal_pwr_ex.o
HAL_PWREx_DisableSRAM2ContentRetention            ./build/stm32l4xx_hal_pwr_ex.o
HAL_PWREx_DisableVddIO2                           ./build/stm32l4xx_hal_pwr_ex.o
HAL_PWREx_DisableVddUSB                           ./build/stm32l4xx_hal_pwr_ex.o
HAL_PWREx_EnableBatteryCharging                   ./build/stm32l4xx_hal_pwr_ex.o
HAL_PWREx_EnableGPIOPullDown                      ./build/stm32l4xx_hal_pwr_ex.o
HAL_PWREx_EnableGPIOPullUp                        ./build/stm32l4xx_hal_pwr_ex.o
HAL_PWREx_EnableInternalWakeUpLine                ./build/stm32l4xx_hal_pwr_ex.o
HAL_PWREx_EnableLowPowerRunMode                   ./build/stm32l4xx_hal_pwr_ex.o
                                                  ./build/stm32l4xx_hal_pwr.o
HAL_PWREx_EnablePVM1                              ./build/stm32l4xx_hal_pwr_ex.o
HAL_PWREx_EnablePVM2                              ./build/stm32l4xx_hal_pwr_ex.o
HAL_PWREx_EnablePVM3                              ./build/stm32l4xx_hal_pwr_ex.o
HAL_PWREx_EnablePVM4                              ./build/stm32l4xx_hal_pwr_ex.o
HAL_PWREx_EnablePullUpPullDownConfig              ./build/stm32l4xx_hal_pwr_ex.o
HAL_PWREx_EnableSRAM2ContentRetention             ./build/stm32l4xx_hal_pwr_ex.o
HAL_PWREx_EnableVddIO2                            ./build/stm32l4xx_hal_pwr_ex.o
HAL_PWREx_EnableVddUSB                            ./build/stm32l4xx_hal_pwr_ex.o
HAL_PWREx_EnterSHUTDOWNMode                       ./build/stm32l4xx_hal_pwr_ex.o
HAL_PWREx_EnterSTOP0Mode                          ./build/stm32l4xx_hal_pwr_ex.o
                                                  ./build/stm32l4xx_hal_pwr.o
HAL_PWREx_EnterSTOP1Mode                          ./build/stm32l4xx_hal_pwr_ex.o
                                                  ./build/stm32l4xx_hal_pwr.o
HAL_PWREx_EnterSTOP2Mode                          ./build/stm32l4xx_hal_pwr_ex.o
HAL_PWREx_GetVoltageRange                         ./build/stm32l4xx_hal_pwr_ex.o
                                                  ./build/stm32l4xx_hal_rcc.o
HAL_PWREx_PVD_PVM_IRQHandler                      ./build/stm32l4xx_hal_pwr_ex.o
HAL_PWREx_PVM1Callback                            ./build/stm32l4xx_hal_pwr_ex.o
HAL_PWREx_PVM2Callback                            ./build/stm32l4xx_hal_pwr_ex.o
HAL_PWREx_PVM3Callback                            ./build/stm32l4xx_hal_pwr_ex.o
HAL_PWREx_PVM4Callback                            ./build/stm32l4xx_hal_pwr_ex.o
HAL_PWR_ConfigPVD                                 ./build/stm32l4xx_hal_pwr.o
HAL_PWR_DeInit                                    ./build/stm32l4xx_hal_pwr.o
HAL_PWR_DisableBkUpAccess                         ./build/stm32l4xx_hal_pwr.o
HAL_PWR_DisablePVD                                ./build/stm32l4xx_hal_pwr.o
HAL_PWR_DisableSEVOnPend                          ./build/stm32l4xx_hal_pwr.o
HAL_PWR_DisableSleepOnExit                        ./build/stm32l4xx_hal_pwr.o
HAL_PWR_DisableWakeUpPin                          ./build/stm32l4xx_hal_pwr.o
HAL_PWR_EnableBkUpAccess                          ./build/stm32l4xx_hal_pwr.o
HAL_PWR_EnablePVD                                 ./build/stm32l4xx_hal_pwr.o
HAL_PWR_EnableSEVOnPend                           ./build/stm32l4xx_hal_pwr.o
HAL_PWR_EnableSleepOnExit                         ./build/stm32l4xx_hal_pwr.o
HAL_PWR_EnableWakeUpPin                           ./build/stm32l4xx_hal_pwr.o
HAL_PWR_EnterSLEEPMode                            ./build/stm32l4xx_hal_pwr.o
HAL_PWR_EnterSTANDBYMode                          ./build/stm32l4xx_hal_pwr.o
HAL_PWR_EnterSTOPMode                             ./build/stm32l4xx_hal_pwr.o
HAL_PWR_PVDCallback                               ./build/stm32l4xx_hal_pwr.o
                                                  ./build/stm32l4xx_hal_pwr_ex.o
HAL_RCC_CSSCallback                               ./build/stm32l4xx_hal_rcc.o
HAL_RCC_ClockConfig                               ./build/stm32l4xx_hal_rcc.o
                                                  ./build/main.o
HAL_RCC_DeInit                                    ./build/stm32l4xx_hal_rcc.o
HAL_RCC_EnableCSS                                 ./build/stm32l4xx_hal_rcc.o
HAL_RCC_GetClockConfig                            ./build/stm32l4xx_hal_rcc.o
HAL_RCC_GetHCLKFreq                               ./build/stm32l4xx_hal_rcc.o
HAL_RCC_GetOscConfig                              ./build/stm32l4xx_hal_rcc.o
HAL_RCC_GetPCLK1Freq                              ./build/stm32l4xx_hal_rcc.o
                                                  ./build/stm32l4xx_hal_uart.o
HAL_RCC_GetPCLK2Freq                              ./build/stm32l4xx_hal_rcc.o
                                                  ./build/stm32l4xx_hal_uart.o
HAL_RCC_GetSysClockFreq                           ./build/stm32l4xx_hal_rcc.o
                                                  ./build/stm32l4xx_hal_uart.o
HAL_RCC_MCOConfig                                 ./build/stm32l4xx_hal_rcc.o
HAL_RCC_NMI_IRQHandler                            ./build/stm32l4xx_hal_rcc.o
HAL_RCC_OscConfig                                 ./build/stm32l4xx_hal_rcc.o
                                                  ./build/main.o
HAL_RS485Ex_Init                                  ./build/stm32l4xx_hal_uart_ex.o
HAL_ResumeTick                                    ./build/stm32l4xx_hal.o
HAL_SYSCFG_DisableIOAnalogSwitchBooster           ./build/stm32l4xx_hal.o
HAL_SYSCFG_DisableMemorySwappingBank              ./build/stm32l4xx_hal.o
HAL_SYSCFG_DisableVREFBUF                         ./build/stm32l4xx_hal.o
HAL_SYSCFG_EnableIOAnalogSwitchBooster            ./build/stm32l4xx_hal.o
HAL_SYSCFG_EnableMemorySwappingBank               ./build/stm32l4xx_hal.o
HAL_SYSCFG_EnableVREFBUF                          ./build/stm32l4xx_hal.o
HAL_SYSCFG_SRAM2Erase                             ./build/stm32l4xx_hal.o
HAL_SYSCFG_VREFBUF_HighImpedanceConfig            ./build/stm32l4xx_hal.o
HAL_SYSCFG_VREFBUF_TrimmingConfig                 ./build/stm32l4xx_hal.o
HAL_SYSCFG_VREFBUF_VoltageScalingConfig           ./build/stm32l4xx_hal.o
HAL_SYSTICK_CLKSourceConfig                       ./build/stm32l4xx_hal_cortex.o
HAL_SYSTICK_Callback                              ./build/stm32l4xx_hal_cortex.o
HAL_SYSTICK_Config                                ./build/stm32l4xx_hal_cortex.o
                                                  ./build/stm32l4xx_hal.o
HAL_SYSTICK_IRQHandler                            ./build/stm32l4xx_hal_cortex.o
HAL_SetTickFreq                                   ./build/stm32l4xx_hal.o
HAL_SuspendTick                                   ./build/stm32l4xx_hal.o
HAL_UARTEx_DisableClockStopMode                   ./build/stm32l4xx_hal_uart_ex.o
HAL_UARTEx_DisableStopMode                        ./build/stm32l4xx_hal_uart_ex.o
HAL_UARTEx_EnableClockStopMode                    ./build/stm32l4xx_hal_uart_ex.o
HAL_UARTEx_EnableStopMode                         ./build/stm32l4xx_hal_uart_ex.o
HAL_UARTEx_StopModeWakeUpSourceConfig             ./build/stm32l4xx_hal_uart_ex.o
HAL_UARTEx_WakeupCallback                         ./build/stm32l4xx_hal_uart_ex.o
                                                  ./build/stm32l4xx_hal_uart.o
HAL_UART_Abort                                    ./build/stm32l4xx_hal_uart.o
HAL_UART_AbortCpltCallback                        ./build/stm32l4xx_hal_uart.o
HAL_UART_AbortReceive                             ./build/stm32l4xx_hal_uart.o
HAL_UART_AbortReceiveCpltCallback                 ./build/stm32l4xx_hal_uart.o
HAL_UART_AbortReceive_IT                          ./build/stm32l4xx_hal_uart.o
HAL_UART_AbortTransmit                            ./build/stm32l4xx_hal_uart.o
HAL_UART_AbortTransmitCpltCallback                ./build/stm32l4xx_hal_uart.o
HAL_UART_AbortTransmit_IT                         ./build/stm32l4xx_hal_uart.o
HAL_UART_Abort_IT                                 ./build/stm32l4xx_hal_uart.o
HAL_UART_DMAPause                                 ./build/stm32l4xx_hal_uart.o
HAL_UART_DMAResume                                ./build/stm32l4xx_hal_uart.o
HAL_UART_DMAStop                                  ./build/stm32l4xx_hal_uart.o
HAL_UART_DeInit                                   ./build/stm32l4xx_hal_uart.o
HAL_UART_ErrorCallback                            ./build/stm32l4xx_hal_uart.o
HAL_UART_GetError                                 ./build/stm32l4xx_hal_uart.o
HAL_UART_GetState                                 ./build/stm32l4xx_hal_uart.o
HAL_UART_IRQHandler                               ./build/stm32l4xx_hal_uart.o
HAL_UART_Init                                     ./build/stm32l4xx_hal_uart.o
                                                  ./build/main.o
HAL_UART_MspDeInit                                ./build/stm32l4xx_hal_uart.o
HAL_UART_MspInit                                  ./build/stm32l4xx_hal_uart.o
                                                  ./build/stm32l4xx_hal_uart_ex.o
HAL_UART_Receive                                  ./build/stm32l4xx_hal_uart.o
HAL_UART_Receive_DMA                              ./build/stm32l4xx_hal_uart.o
HAL_UART_Receive_IT                               ./build/stm32l4xx_hal_uart.o
HAL_UART_RxCpltCallback                           ./build/stm32l4xx_hal_uart.o
HAL_UART_RxHalfCpltCallback                       ./build/stm32l4xx_hal_uart.o
HAL_UART_Transmit                                 ./build/stm32l4xx_hal_uart.o
                                                  ./build/read_data_simple.o
HAL_UART_Transmit_DMA                             ./build/stm32l4xx_hal_uart.o
HAL_UART_Transmit_IT                              ./build/stm32l4xx_hal_uart.o
HAL_UART_TxCpltCallback                           ./build/stm32l4xx_hal_uart.o
HAL_UART_TxHalfCpltCallback                       ./build/stm32l4xx_hal_uart.o
HardFault_Handler                                 build/stm32l476_startup.o
I2C1_ER_IRQHandler                                build/stm32l476_startup.o
I2C1_EV_IRQHandler                                build/stm32l476_startup.o
I2C2_ER_IRQHandler                                build/stm32l476_startup.o
I2C2_EV_IRQHandler                                build/stm32l476_startup.o
I2C3_ER_IRQHandler                                build/stm32l476_startup.o
I2C3_EV_IRQHandler                                build/stm32l476_startup.o
LCD_IRQHandler                                    build/stm32l476_startup.o
LPTIM1_IRQHandler                                 build/stm32l476_startup.o
LPTIM2_IRQHandler                                 build/stm32l476_startup.o
LPUART1_IRQHandler                                build/stm32l476_startup.o
MSIRangeTable                                     ./build/system_stm32l4xx.o
                                                  ./build/stm32l4xx_hal_rcc.o
MemManage_Handler                                 build/stm32l476_startup.o
NMI_Handler                                       build/stm32l476_startup.o
OTG_FS_IRQHandler                                 build/stm32l476_startup.o
PVD_PVM_IRQHandler                                build/stm32l476_startup.o
PendSV_Handler                                    build/stm32l476_startup.o
QUADSPI_IRQHandler                                build/stm32l476_startup.o
RCC_IRQHandler                                    build/stm32l476_startup.o
RNG_IRQHandler                                    build/stm32l476_startup.o
RTC_Alarm_IRQHandler                              build/stm32l476_startup.o
RTC_WKUP_IRQHandler                               build/stm32l476_startup.o
Reset_Handler                                     build/stm32l476_startup.o
SAI1_IRQHandler                                   build/stm32l476_startup.o
SAI2_IRQHandler                                   build/stm32l476_startup.o
SDMMC1_IRQHandler                                 build/stm32l476_startup.o
SPI1_IRQHandler                                   build/stm32l476_startup.o
SPI2_IRQHandler                                   build/stm32l476_startup.o
SPI3_IRQHandler                                   build/stm32l476_startup.o
SVC_Handler                                       build/stm32l476_startup.o
SWPMI1_IRQHandler                                 build/stm32l476_startup.o
SysTick_Handler                                   build/stm32l476_startup.o
SystemClock_Config                                ./build/main.o
SystemCoreClock                                   ./build/system_stm32l4xx.o
                                                  ./build/stm32l4xx_hal_pwr_ex.o
                                                  ./build/stm32l4xx_hal_rcc.o
                                                  ./build/stm32l4xx_hal.o
SystemCoreClockUpdate                             ./build/system_stm32l4xx.o
SystemInit                                        ./build/system_stm32l4xx.o
                                                  build/stm32l476_startup.o
TAMP_STAMP_IRQHandler                             build/stm32l476_startup.o
TIM1_BRK_TIM15_IRQHandler                         build/stm32l476_startup.o
TIM1_CC_IRQHandler                                build/stm32l476_startup.o
TIM1_TRG_COM_TIM17_IRQHandler                     build/stm32l476_startup.o
TIM1_UP_TIM16_IRQHandler                          build/stm32l476_startup.o
TIM2_IRQHandler                                   build/stm32l476_startup.o
TIM3_IRQHandler                                   build/stm32l476_startup.o
TIM4_IRQHandler                                   build/stm32l476_startup.o
TIM5_IRQHandler                                   build/stm32l476_startup.o
TIM6_DAC_IRQHandler                               build/stm32l476_startup.o
TIM7_IRQHandler                                   build/stm32l476_startup.o
TIM8_BRK_IRQHandler                               build/stm32l476_startup.o
TIM8_CC_IRQHandler                                build/stm32l476_startup.o
TIM8_TRG_COM_IRQHandler                           build/stm32l476_startup.o
TIM8_UP_IRQHandler                                build/stm32l476_startup.o
TSC_IRQHandler                                    build/stm32l476_startup.o
UART4_IRQHandler                                  build/stm32l476_startup.o
UART5_IRQHandler                                  build/stm32l476_startup.o
UART_AdvFeatureConfig                             ./build/stm32l4xx_hal_uart.o
                                                  ./build/stm32l4xx_hal_uart_ex.o
UART_CheckIdleState                               ./build/stm32l4xx_hal_uart.o
                                                  ./build/stm32l4xx_hal_uart_ex.o
UART_SetConfig                                    ./build/stm32l4xx_hal_uart.o
                                                  ./build/stm32l4xx_hal_uart_ex.o
UART_WaitOnFlagUntilTimeout                       ./build/stm32l4xx_hal_uart.o
                                                  ./build/stm32l4xx_hal_uart_ex.o
USART1_IRQHandler                                 build/stm32l476_startup.o
USART2_IRQHandler                                 build/stm32l476_startup.o
USART3_IRQHandler                                 build/stm32l476_startup.o
UsageFault_Handler                                build/stm32l476_startup.o
WWDG_IRQHandler                                   build/stm32l476_startup.o
__adddf3                                          /home/maxime/Bureau/IMERIR-2019/gcc-arm-none-eabi-9-2019-q4-major/bin/../lib/gcc/arm-none-eabi/9.2.1/thumb/v7e-m+fp/hard/libgcc.a(_arm_addsubdf3.o)
__aeabi_dadd                                      /home/maxime/Bureau/IMERIR-2019/gcc-arm-none-eabi-9-2019-q4-major/bin/../lib/gcc/arm-none-eabi/9.2.1/thumb/v7e-m+fp/hard/libgcc.a(_arm_addsubdf3.o)
__aeabi_drsub                                     /home/maxime/Bureau/IMERIR-2019/gcc-arm-none-eabi-9-2019-q4-major/bin/../lib/gcc/arm-none-eabi/9.2.1/thumb/v7e-m+fp/hard/libgcc.a(_arm_addsubdf3.o)
__aeabi_dsub                                      /home/maxime/Bureau/IMERIR-2019/gcc-arm-none-eabi-9-2019-q4-major/bin/../lib/gcc/arm-none-eabi/9.2.1/thumb/v7e-m+fp/hard/libgcc.a(_arm_addsubdf3.o)
__aeabi_f2d                                       /home/maxime/Bureau/IMERIR-2019/gcc-arm-none-eabi-9-2019-q4-major/bin/../lib/gcc/arm-none-eabi/9.2.1/thumb/v7e-m+fp/hard/libgcc.a(_arm_addsubdf3.o)
                                                  ./build/read_data_simple.o
__aeabi_i2d                                       /home/maxime/Bureau/IMERIR-2019/gcc-arm-none-eabi-9-2019-q4-major/bin/../lib/gcc/arm-none-eabi/9.2.1/thumb/v7e-m+fp/hard/libgcc.a(_arm_addsubdf3.o)
__aeabi_idiv0                                     /home/maxime/Bureau/IMERIR-2019/gcc-arm-none-eabi-9-2019-q4-major/bin/../lib/gcc/arm-none-eabi/9.2.1/thumb/v7e-m+fp/hard/libgcc.a(_dvmd_tls.o)
__aeabi_l2d                                       /home/maxime/Bureau/IMERIR-2019/gcc-arm-none-eabi-9-2019-q4-major/bin/../lib/gcc/arm-none-eabi/9.2.1/thumb/v7e-m+fp/hard/libgcc.a(_arm_addsubdf3.o)
__aeabi_ldiv0                                     /home/maxime/Bureau/IMERIR-2019/gcc-arm-none-eabi-9-2019-q4-major/bin/../lib/gcc/arm-none-eabi/9.2.1/thumb/v7e-m+fp/hard/libgcc.a(_dvmd_tls.o)
                                                  /home/maxime/Bureau/IMERIR-2019/gcc-arm-none-eabi-9-2019-q4-major/bin/../lib/gcc/arm-none-eabi/9.2.1/thumb/v7e-m+fp/hard/libgcc.a(_aeabi_uldivmod.o)
                                                  /home/maxime/Bureau/IMERIR-2019/gcc-arm-none-eabi-9-2019-q4-major/bin/../lib/gcc/arm-none-eabi/9.2.1/thumb/v7e-m+fp/hard/libgcc.a(_aeabi_ldivmod.o)
__aeabi_ldivmod                                   /home/maxime/Bureau/IMERIR-2019/gcc-arm-none-eabi-9-2019-q4-major/bin/../lib/gcc/arm-none-eabi/9.2.1/thumb/v7e-m+fp/hard/libgcc.a(_aeabi_ldivmod.o)
                                                  ./build/stm32l4xx_hal_uart.o
__aeabi_ui2d                                      /home/maxime/Bureau/IMERIR-2019/gcc-arm-none-eabi-9-2019-q4-major/bin/../lib/gcc/arm-none-eabi/9.2.1/thumb/v7e-m+fp/hard/libgcc.a(_arm_addsubdf3.o)
__aeabi_ul2d                                      /home/maxime/Bureau/IMERIR-2019/gcc-arm-none-eabi-9-2019-q4-major/bin/../lib/gcc/arm-none-eabi/9.2.1/thumb/v7e-m+fp/hard/libgcc.a(_arm_addsubdf3.o)
__aeabi_uldivmod                                  /home/maxime/Bureau/IMERIR-2019/gcc-arm-none-eabi-9-2019-q4-major/bin/../lib/gcc/arm-none-eabi/9.2.1/thumb/v7e-m+fp/hard/libgcc.a(_aeabi_uldivmod.o)
                                                  ./build/stm32l4xx_hal_uart.o
__bss_end__                                       /home/maxime/Bureau/IMERIR-2019/gcc-arm-none-eabi-9-2019-q4-major/bin/../lib/gcc/arm-none-eabi/9.2.1/../../../../arm-none-eabi/lib/thumb/v7e-m+fp/hard/crt0.o
__bss_start__                                     /home/maxime/Bureau/IMERIR-2019/gcc-arm-none-eabi-9-2019-q4-major/bin/../lib/gcc/arm-none-eabi/9.2.1/../../../../arm-none-eabi/lib/thumb/v7e-m+fp/hard/crt0.o
__call_exitprocs                                  /home/maxime/Bureau/IMERIR-2019/gcc-arm-none-eabi-9-2019-q4-major/bin/../lib/gcc/arm-none-eabi/9.2.1/../../../../arm-none-eabi/lib/thumb/v7e-m+fp/hard/libc_nano.a(lib_a-exit.o)
__deregister_frame_info                           /home/maxime/Bureau/IMERIR-2019/gcc-arm-none-eabi-9-2019-q4-major/bin/../lib/gcc/arm-none-eabi/9.2.1/thumb/v7e-m+fp/hard/crtbegin.o
__dso_handle                                      /home/maxime/Bureau/IMERIR-2019/gcc-arm-none-eabi-9-2019-q4-major/bin/../lib/gcc/arm-none-eabi/9.2.1/thumb/v7e-m+fp/hard/crtbegin.o
__extendsfdf2                                     /home/maxime/Bureau/IMERIR-2019/gcc-arm-none-eabi-9-2019-q4-major/bin/../lib/gcc/arm-none-eabi/9.2.1/thumb/v7e-m+fp/hard/libgcc.a(_arm_addsubdf3.o)
__floatdidf                                       /home/maxime/Bureau/IMERIR-2019/gcc-arm-none-eabi-9-2019-q4-major/bin/../lib/gcc/arm-none-eabi/9.2.1/thumb/v7e-m+fp/hard/libgcc.a(_arm_addsubdf3.o)
__floatsidf                                       /home/maxime/Bureau/IMERIR-2019/gcc-arm-none-eabi-9-2019-q4-major/bin/../lib/gcc/arm-none-eabi/9.2.1/thumb/v7e-m+fp/hard/libgcc.a(_arm_addsubdf3.o)
__floatundidf                                     /home/maxime/Bureau/IMERIR-2019/gcc-arm-none-eabi-9-2019-q4-major/bin/../lib/gcc/arm-none-eabi/9.2.1/thumb/v7e-m+fp/hard/libgcc.a(_arm_addsubdf3.o)
__floatunsidf                                     /home/maxime/Bureau/IMERIR-2019/gcc-arm-none-eabi-9-2019-q4-major/bin/../lib/gcc/arm-none-eabi/9.2.1/thumb/v7e-m+fp/hard/libgcc.a(_arm_addsubdf3.o)
__init_array_end                                  /home/maxime/Bureau/IMERIR-2019/gcc-arm-none-eabi-9-2019-q4-major/bin/../lib/gcc/arm-none-eabi/9.2.1/../../../../arm-none-eabi/lib/thumb/v7e-m+fp/hard/libc_nano.a(lib_a-init.o)
__init_array_start                                /home/maxime/Bureau/IMERIR-2019/gcc-arm-none-eabi-9-2019-q4-major/bin/../lib/gcc/arm-none-eabi/9.2.1/../../../../arm-none-eabi/lib/thumb/v7e-m+fp/hard/libc_nano.a(lib_a-init.o)
__libc_fini_array                                 /home/maxime/Bureau/IMERIR-2019/gcc-arm-none-eabi-9-2019-q4-major/bin/../lib/gcc/arm-none-eabi/9.2.1/../../../../arm-none-eabi/lib/thumb/v7e-m+fp/hard/crt0.o
__libc_init_array                                 /home/maxime/Bureau/IMERIR-2019/gcc-arm-none-eabi-9-2019-q4-major/bin/../lib/gcc/arm-none-eabi/9.2.1/../../../../arm-none-eabi/lib/thumb/v7e-m+fp/hard/libc_nano.a(lib_a-init.o)
                                                  build/stm32l476_startup.o
                                                  /home/maxime/Bureau/IMERIR-2019/gcc-arm-none-eabi-9-2019-q4-major/bin/../lib/gcc/arm-none-eabi/9.2.1/../../../../arm-none-eabi/lib/thumb/v7e-m+fp/hard/crt0.o
__lock___arc4random_mutex                         /home/maxime/Bureau/IMERIR-2019/gcc-arm-none-eabi-9-2019-q4-major/bin/../lib/gcc/arm-none-eabi/9.2.1/../../../../arm-none-eabi/lib/thumb/v7e-m+fp/hard/libc_nano.a(lib_a-lock.o)
__lock___at_quick_exit_mutex                      /home/maxime/Bureau/IMERIR-2019/gcc-arm-none-eabi-9-2019-q4-major/bin/../lib/gcc/arm-none-eabi/9.2.1/../../../../arm-none-eabi/lib/thumb/v7e-m+fp/hard/libc_nano.a(lib_a-lock.o)
__lock___atexit_recursive_mutex                   /home/maxime/Bureau/IMERIR-2019/gcc-arm-none-eabi-9-2019-q4-major/bin/../lib/gcc/arm-none-eabi/9.2.1/../../../../arm-none-eabi/lib/thumb/v7e-m+fp/hard/libc_nano.a(lib_a-lock.o)
__lock___dd_hash_mutex                            /home/maxime/Bureau/IMERIR-2019/gcc-arm-none-eabi-9-2019-q4-major/bin/../lib/gcc/arm-none-eabi/9.2.1/../../../../arm-none-eabi/lib/thumb/v7e-m+fp/hard/libc_nano.a(lib_a-lock.o)
__lock___env_recursive_mutex                      /home/maxime/Bureau/IMERIR-2019/gcc-arm-none-eabi-9-2019-q4-major/bin/../lib/gcc/arm-none-eabi/9.2.1/../../../../arm-none-eabi/lib/thumb/v7e-m+fp/hard/libc_nano.a(lib_a-lock.o)
__lock___malloc_recursive_mutex                   /home/maxime/Bureau/IMERIR-2019/gcc-arm-none-eabi-9-2019-q4-major/bin/../lib/gcc/arm-none-eabi/9.2.1/../../../../arm-none-eabi/lib/thumb/v7e-m+fp/hard/libc_nano.a(lib_a-lock.o)
                                                  /home/maxime/Bureau/IMERIR-2019/gcc-arm-none-eabi-9-2019-q4-major/bin/../lib/gcc/arm-none-eabi/9.2.1/../../../../arm-none-eabi/lib/thumb/v7e-m+fp/hard/libc_nano.a(lib_a-mlock.o)
__lock___sfp_recursive_mutex                      /home/maxime/Bureau/IMERIR-2019/gcc-arm-none-eabi-9-2019-q4-major/bin/../lib/gcc/arm-none-eabi/9.2.1/../../../../arm-none-eabi/lib/thumb/v7e-m+fp/hard/libc_nano.a(lib_a-lock.o)
__lock___sinit_recursive_mutex                    /home/maxime/Bureau/IMERIR-2019/gcc-arm-none-eabi-9-2019-q4-major/bin/../lib/gcc/arm-none-eabi/9.2.1/../../../../arm-none-eabi/lib/thumb/v7e-m+fp/hard/libc_nano.a(lib_a-lock.o)
__lock___tz_mutex                                 /home/maxime/Bureau/IMERIR-2019/gcc-arm-none-eabi-9-2019-q4-major/bin/../lib/gcc/arm-none-eabi/9.2.1/../../../../arm-none-eabi/lib/thumb/v7e-m+fp/hard/libc_nano.a(lib_a-lock.o)
__malloc_free_list                                /home/maxime/Bureau/IMERIR-2019/gcc-arm-none-eabi-9-2019-q4-major/bin/../lib/gcc/arm-none-eabi/9.2.1/../../../../arm-none-eabi/lib/thumb/v7e-m+fp/hard/libc_nano.a(lib_a-nano-mallocr.o)
                                                  /home/maxime/Bureau/IMERIR-2019/gcc-arm-none-eabi-9-2019-q4-major/bin/../lib/gcc/arm-none-eabi/9.2.1/../../../../arm-none-eabi/lib/thumb/v7e-m+fp/hard/libc_nano.a(lib_a-nano-freer.o)
__malloc_lock                                     /home/maxime/Bureau/IMERIR-2019/gcc-arm-none-eabi-9-2019-q4-major/bin/../lib/gcc/arm-none-eabi/9.2.1/../../../../arm-none-eabi/lib/thumb/v7e-m+fp/hard/libc_nano.a(lib_a-mlock.o)
                                                  /home/maxime/Bureau/IMERIR-2019/gcc-arm-none-eabi-9-2019-q4-major/bin/../lib/gcc/arm-none-eabi/9.2.1/../../../../arm-none-eabi/lib/thumb/v7e-m+fp/hard/libc_nano.a(lib_a-nano-mallocr.o)
                                                  /home/maxime/Bureau/IMERIR-2019/gcc-arm-none-eabi-9-2019-q4-major/bin/../lib/gcc/arm-none-eabi/9.2.1/../../../../arm-none-eabi/lib/thumb/v7e-m+fp/hard/libc_nano.a(lib_a-nano-freer.o)
__malloc_sbrk_start                               /home/maxime/Bureau/IMERIR-2019/gcc-arm-none-eabi-9-2019-q4-major/bin/../lib/gcc/arm-none-eabi/9.2.1/../../../../arm-none-eabi/lib/thumb/v7e-m+fp/hard/libc_nano.a(lib_a-nano-mallocr.o)
__malloc_unlock                                   /home/maxime/Bureau/IMERIR-2019/gcc-arm-none-eabi-9-2019-q4-major/bin/../lib/gcc/arm-none-eabi/9.2.1/../../../../arm-none-eabi/lib/thumb/v7e-m+fp/hard/libc_nano.a(lib_a-mlock.o)
                                                  /home/maxime/Bureau/IMERIR-2019/gcc-arm-none-eabi-9-2019-q4-major/bin/../lib/gcc/arm-none-eabi/9.2.1/../../../../arm-none-eabi/lib/thumb/v7e-m+fp/hard/libc_nano.a(lib_a-nano-mallocr.o)
                                                  /home/maxime/Bureau/IMERIR-2019/gcc-arm-none-eabi-9-2019-q4-major/bin/../lib/gcc/arm-none-eabi/9.2.1/../../../../arm-none-eabi/lib/thumb/v7e-m+fp/hard/libc_nano.a(lib_a-nano-freer.o)
__preinit_array_end                               /home/maxime/Bureau/IMERIR-2019/gcc-arm-none-eabi-9-2019-q4-major/bin/../lib/gcc/arm-none-eabi/9.2.1/../../../../arm-none-eabi/lib/thumb/v7e-m+fp/hard/libc_nano.a(lib_a-init.o)
__preinit_array_start                             /home/maxime/Bureau/IMERIR-2019/gcc-arm-none-eabi-9-2019-q4-major/bin/../lib/gcc/arm-none-eabi/9.2.1/../../../../arm-none-eabi/lib/thumb/v7e-m+fp/hard/libc_nano.a(lib_a-init.o)
__register_frame_info                             /home/maxime/Bureau/IMERIR-2019/gcc-arm-none-eabi-9-2019-q4-major/bin/../lib/gcc/arm-none-eabi/9.2.1/thumb/v7e-m+fp/hard/crtbegin.o
__retarget_lock_acquire                           /home/maxime/Bureau/IMERIR-2019/gcc-arm-none-eabi-9-2019-q4-major/bin/../lib/gcc/arm-none-eabi/9.2.1/../../../../arm-none-eabi/lib/thumb/v7e-m+fp/hard/libc_nano.a(lib_a-lock.o)
__retarget_lock_acquire_recursive                 /home/maxime/Bureau/IMERIR-2019/gcc-arm-none-eabi-9-2019-q4-major/bin/../lib/gcc/arm-none-eabi/9.2.1/../../../../arm-none-eabi/lib/thumb/v7e-m+fp/hard/libc_nano.a(lib_a-lock.o)
                                                  /home/maxime/Bureau/IMERIR-2019/gcc-arm-none-eabi-9-2019-q4-major/bin/../lib/gcc/arm-none-eabi/9.2.1/../../../../arm-none-eabi/lib/thumb/v7e-m+fp/hard/libc_nano.a(lib_a-mlock.o)
__retarget_lock_close                             /home/maxime/Bureau/IMERIR-2019/gcc-arm-none-eabi-9-2019-q4-major/bin/../lib/gcc/arm-none-eabi/9.2.1/../../../../arm-none-eabi/lib/thumb/v7e-m+fp/hard/libc_nano.a(lib_a-lock.o)
__retarget_lock_close_recursive                   /home/maxime/Bureau/IMERIR-2019/gcc-arm-none-eabi-9-2019-q4-major/bin/../lib/gcc/arm-none-eabi/9.2.1/../../../../arm-none-eabi/lib/thumb/v7e-m+fp/hard/libc_nano.a(lib_a-lock.o)
__retarget_lock_init                              /home/maxime/Bureau/IMERIR-2019/gcc-arm-none-eabi-9-2019-q4-major/bin/../lib/gcc/arm-none-eabi/9.2.1/../../../../arm-none-eabi/lib/thumb/v7e-m+fp/hard/libc_nano.a(lib_a-lock.o)
__retarget_lock_init_recursive                    /home/maxime/Bureau/IMERIR-2019/gcc-arm-none-eabi-9-2019-q4-major/bin/../lib/gcc/arm-none-eabi/9.2.1/../../../../arm-none-eabi/lib/thumb/v7e-m+fp/hard/libc_nano.a(lib_a-lock.o)
__retarget_lock_release                           /home/maxime/Bureau/IMERIR-2019/gcc-arm-none-eabi-9-2019-q4-major/bin/../lib/gcc/arm-none-eabi/9.2.1/../../../../arm-none-eabi/lib/thumb/v7e-m+fp/hard/libc_nano.a(lib_a-lock.o)
__retarget_lock_release_recursive                 /home/maxime/Bureau/IMERIR-2019/gcc-arm-none-eabi-9-2019-q4-major/bin/../lib/gcc/arm-none-eabi/9.2.1/../../../../arm-none-eabi/lib/thumb/v7e-m+fp/hard/libc_nano.a(lib_a-lock.o)
                                                  /home/maxime/Bureau/IMERIR-2019/gcc-arm-none-eabi-9-2019-q4-major/bin/../lib/gcc/arm-none-eabi/9.2.1/../../../../arm-none-eabi/lib/thumb/v7e-m+fp/hard/libc_nano.a(lib_a-mlock.o)
__retarget_lock_try_acquire                       /home/maxime/Bureau/IMERIR-2019/gcc-arm-none-eabi-9-2019-q4-major/bin/../lib/gcc/arm-none-eabi/9.2.1/../../../../arm-none-eabi/lib/thumb/v7e-m+fp/hard/libc_nano.a(lib_a-lock.o)
__retarget_lock_try_acquire_recursive             /home/maxime/Bureau/IMERIR-2019/gcc-arm-none-eabi-9-2019-q4-major/bin/../lib/gcc/arm-none-eabi/9.2.1/../../../../arm-none-eabi/lib/thumb/v7e-m+fp/hard/libc_nano.a(lib_a-lock.o)
__sf_fake_stderr                                  /home/maxime/Bureau/IMERIR-2019/gcc-arm-none-eabi-9-2019-q4-major/bin/../lib/gcc/arm-none-eabi/9.2.1/../../../../arm-none-eabi/lib/thumb/v7e-m+fp/hard/libc_nano.a(lib_a-impure.o)
__sf_fake_stdin                                   /home/maxime/Bureau/IMERIR-2019/gcc-arm-none-eabi-9-2019-q4-major/bin/../lib/gcc/arm-none-eabi/9.2.1/../../../../arm-none-eabi/lib/thumb/v7e-m+fp/hard/libc_nano.a(lib_a-impure.o)
__sf_fake_stdout                                  /home/maxime/Bureau/IMERIR-2019/gcc-arm-none-eabi-9-2019-q4-major/bin/../lib/gcc/arm-none-eabi/9.2.1/../../../../arm-none-eabi/lib/thumb/v7e-m+fp/hard/libc_nano.a(lib_a-impure.o)
__ssprint_r                                       /home/maxime/Bureau/IMERIR-2019/gcc-arm-none-eabi-9-2019-q4-major/bin/../lib/gcc/arm-none-eabi/9.2.1/../../../../arm-none-eabi/lib/thumb/v7e-m+fp/hard/libc_nano.a(lib_a-nano-svfprintf.o)
__ssputs_r                                        /home/maxime/Bureau/IMERIR-2019/gcc-arm-none-eabi-9-2019-q4-major/bin/../lib/gcc/arm-none-eabi/9.2.1/../../../../arm-none-eabi/lib/thumb/v7e-m+fp/hard/libc_nano.a(lib_a-nano-svfprintf.o)
__stack                                           /home/maxime/Bureau/IMERIR-2019/gcc-arm-none-eabi-9-2019-q4-major/bin/../lib/gcc/arm-none-eabi/9.2.1/../../../../arm-none-eabi/lib/thumb/v7e-m+fp/hard/crt0.o
__subdf3                                          /home/maxime/Bureau/IMERIR-2019/gcc-arm-none-eabi-9-2019-q4-major/bin/../lib/gcc/arm-none-eabi/9.2.1/thumb/v7e-m+fp/hard/libgcc.a(_arm_addsubdf3.o)
__udivmoddi4                                      /home/maxime/Bureau/IMERIR-2019/gcc-arm-none-eabi-9-2019-q4-major/bin/../lib/gcc/arm-none-eabi/9.2.1/thumb/v7e-m+fp/hard/libgcc.a(_udivmoddi4.o)
                                                  /home/maxime/Bureau/IMERIR-2019/gcc-arm-none-eabi-9-2019-q4-major/bin/../lib/gcc/arm-none-eabi/9.2.1/thumb/v7e-m+fp/hard/libgcc.a(_aeabi_uldivmod.o)
                                                  /home/maxime/Bureau/IMERIR-2019/gcc-arm-none-eabi-9-2019-q4-major/bin/../lib/gcc/arm-none-eabi/9.2.1/thumb/v7e-m+fp/hard/libgcc.a(_aeabi_ldivmod.o)
_ebss                                             build/stm32l476_startup.o
_edata                                            build/stm32l476_startup.o
_estack                                           build/stm32l476_startup.o
_exit                                             /home/maxime/Bureau/IMERIR-2019/gcc-arm-none-eabi-9-2019-q4-major/bin/../lib/gcc/arm-none-eabi/9.2.1/../../../../arm-none-eabi/lib/thumb/v7e-m+fp/hard/libnosys.a(_exit.o)
                                                  /home/maxime/Bureau/IMERIR-2019/gcc-arm-none-eabi-9-2019-q4-major/bin/../lib/gcc/arm-none-eabi/9.2.1/../../../../arm-none-eabi/lib/thumb/v7e-m+fp/hard/libc_nano.a(lib_a-exit.o)
_fini                                             /home/maxime/Bureau/IMERIR-2019/gcc-arm-none-eabi-9-2019-q4-major/bin/../lib/gcc/arm-none-eabi/9.2.1/thumb/v7e-m+fp/hard/crti.o
_free_r                                           /home/maxime/Bureau/IMERIR-2019/gcc-arm-none-eabi-9-2019-q4-major/bin/../lib/gcc/arm-none-eabi/9.2.1/../../../../arm-none-eabi/lib/thumb/v7e-m+fp/hard/libc_nano.a(lib_a-nano-freer.o)
                                                  /home/maxime/Bureau/IMERIR-2019/gcc-arm-none-eabi-9-2019-q4-major/bin/../lib/gcc/arm-none-eabi/9.2.1/../../../../arm-none-eabi/lib/thumb/v7e-m+fp/hard/libc_nano.a(lib_a-reent.o)
                                                  /home/maxime/Bureau/IMERIR-2019/gcc-arm-none-eabi-9-2019-q4-major/bin/../lib/gcc/arm-none-eabi/9.2.1/../../../../arm-none-eabi/lib/thumb/v7e-m+fp/hard/libc_nano.a(lib_a-nano-reallocr.o)
                                                  /home/maxime/Bureau/IMERIR-2019/gcc-arm-none-eabi-9-2019-q4-major/bin/../lib/gcc/arm-none-eabi/9.2.1/../../../../arm-none-eabi/lib/thumb/v7e-m+fp/hard/libc_nano.a(lib_a-nano-svfprintf.o)
_global_impure_ptr                                /home/maxime/Bureau/IMERIR-2019/gcc-arm-none-eabi-9-2019-q4-major/bin/../lib/gcc/arm-none-eabi/9.2.1/../../../../arm-none-eabi/lib/thumb/v7e-m+fp/hard/libc_nano.a(lib_a-impure.o)
                                                  /home/maxime/Bureau/IMERIR-2019/gcc-arm-none-eabi-9-2019-q4-major/bin/../lib/gcc/arm-none-eabi/9.2.1/../../../../arm-none-eabi/lib/thumb/v7e-m+fp/hard/libc_nano.a(lib_a-exit.o)
_impure_ptr                                       /home/maxime/Bureau/IMERIR-2019/gcc-arm-none-eabi-9-2019-q4-major/bin/../lib/gcc/arm-none-eabi/9.2.1/../../../../arm-none-eabi/lib/thumb/v7e-m+fp/hard/libc_nano.a(lib_a-impure.o)
                                                  /home/maxime/Bureau/IMERIR-2019/gcc-arm-none-eabi-9-2019-q4-major/bin/../lib/gcc/arm-none-eabi/9.2.1/../../../../arm-none-eabi/lib/thumb/v7e-m+fp/hard/libc_nano.a(lib_a-reent.o)
                                                  /home/maxime/Bureau/IMERIR-2019/gcc-arm-none-eabi-9-2019-q4-major/bin/../lib/gcc/arm-none-eabi/9.2.1/../../../../arm-none-eabi/lib/thumb/v7e-m+fp/hard/libc_nano.a(lib_a-sprintf.o)
_init                                             /home/maxime/Bureau/IMERIR-2019/gcc-arm-none-eabi-9-2019-q4-major/bin/../lib/gcc/arm-none-eabi/9.2.1/thumb/v7e-m+fp/hard/crti.o
                                                  /home/maxime/Bureau/IMERIR-2019/gcc-arm-none-eabi-9-2019-q4-major/bin/../lib/gcc/arm-none-eabi/9.2.1/../../../../arm-none-eabi/lib/thumb/v7e-m+fp/hard/libc_nano.a(lib_a-init.o)
_mainCRTStartup                                   /home/maxime/Bureau/IMERIR-2019/gcc-arm-none-eabi-9-2019-q4-major/bin/../lib/gcc/arm-none-eabi/9.2.1/../../../../arm-none-eabi/lib/thumb/v7e-m+fp/hard/crt0.o
_malloc_r                                         /home/maxime/Bureau/IMERIR-2019/gcc-arm-none-eabi-9-2019-q4-major/bin/../lib/gcc/arm-none-eabi/9.2.1/../../../../arm-none-eabi/lib/thumb/v7e-m+fp/hard/libc_nano.a(lib_a-nano-mallocr.o)
                                                  /home/maxime/Bureau/IMERIR-2019/gcc-arm-none-eabi-9-2019-q4-major/bin/../lib/gcc/arm-none-eabi/9.2.1/../../../../arm-none-eabi/lib/thumb/v7e-m+fp/hard/libc_nano.a(lib_a-nano-reallocr.o)
                                                  /home/maxime/Bureau/IMERIR-2019/gcc-arm-none-eabi-9-2019-q4-major/bin/../lib/gcc/arm-none-eabi/9.2.1/../../../../arm-none-eabi/lib/thumb/v7e-m+fp/hard/libc_nano.a(lib_a-nano-svfprintf.o)
_malloc_usable_size_r                             /home/maxime/Bureau/IMERIR-2019/gcc-arm-none-eabi-9-2019-q4-major/bin/../lib/gcc/arm-none-eabi/9.2.1/../../../../arm-none-eabi/lib/thumb/v7e-m+fp/hard/libc_nano.a(lib_a-nano-msizer.o)
                                                  /home/maxime/Bureau/IMERIR-2019/gcc-arm-none-eabi-9-2019-q4-major/bin/../lib/gcc/arm-none-eabi/9.2.1/../../../../arm-none-eabi/lib/thumb/v7e-m+fp/hard/libc_nano.a(lib_a-nano-reallocr.o)
_printf_common                                    /home/maxime/Bureau/IMERIR-2019/gcc-arm-none-eabi-9-2019-q4-major/bin/../lib/gcc/arm-none-eabi/9.2.1/../../../../arm-none-eabi/lib/thumb/v7e-m+fp/hard/libc_nano.a(lib_a-nano-vfprintf_i.o)
_printf_float                                     /home/maxime/Bureau/IMERIR-2019/gcc-arm-none-eabi-9-2019-q4-major/bin/../lib/gcc/arm-none-eabi/9.2.1/../../../../arm-none-eabi/lib/thumb/v7e-m+fp/hard/libc_nano.a(lib_a-nano-svfprintf.o)
_printf_i                                         /home/maxime/Bureau/IMERIR-2019/gcc-arm-none-eabi-9-2019-q4-major/bin/../lib/gcc/arm-none-eabi/9.2.1/../../../../arm-none-eabi/lib/thumb/v7e-m+fp/hard/libc_nano.a(lib_a-nano-vfprintf_i.o)
                                                  /home/maxime/Bureau/IMERIR-2019/gcc-arm-none-eabi-9-2019-q4-major/bin/../lib/gcc/arm-none-eabi/9.2.1/../../../../arm-none-eabi/lib/thumb/v7e-m+fp/hard/libc_nano.a(lib_a-nano-svfprintf.o)
_realloc_r                                        /home/maxime/Bureau/IMERIR-2019/gcc-arm-none-eabi-9-2019-q4-major/bin/../lib/gcc/arm-none-eabi/9.2.1/../../../../arm-none-eabi/lib/thumb/v7e-m+fp/hard/libc_nano.a(lib_a-nano-reallocr.o)
                                                  /home/maxime/Bureau/IMERIR-2019/gcc-arm-none-eabi-9-2019-q4-major/bin/../lib/gcc/arm-none-eabi/9.2.1/../../../../arm-none-eabi/lib/thumb/v7e-m+fp/hard/libc_nano.a(lib_a-nano-svfprintf.o)
_reclaim_reent                                    /home/maxime/Bureau/IMERIR-2019/gcc-arm-none-eabi-9-2019-q4-major/bin/../lib/gcc/arm-none-eabi/9.2.1/../../../../arm-none-eabi/lib/thumb/v7e-m+fp/hard/libc_nano.a(lib_a-reent.o)
_sbrk                                             /home/maxime/Bureau/IMERIR-2019/gcc-arm-none-eabi-9-2019-q4-major/bin/../lib/gcc/arm-none-eabi/9.2.1/../../../../arm-none-eabi/lib/thumb/v7e-m+fp/hard/libnosys.a(sbrk.o)
                                                  /home/maxime/Bureau/IMERIR-2019/gcc-arm-none-eabi-9-2019-q4-major/bin/../lib/gcc/arm-none-eabi/9.2.1/../../../../arm-none-eabi/lib/thumb/v7e-m+fp/hard/libc_nano.a(lib_a-sbrkr.o)
_sbrk_r                                           /home/maxime/Bureau/IMERIR-2019/gcc-arm-none-eabi-9-2019-q4-major/bin/../lib/gcc/arm-none-eabi/9.2.1/../../../../arm-none-eabi/lib/thumb/v7e-m+fp/hard/libc_nano.a(lib_a-sbrkr.o)
                                                  /home/maxime/Bureau/IMERIR-2019/gcc-arm-none-eabi-9-2019-q4-major/bin/../lib/gcc/arm-none-eabi/9.2.1/../../../../arm-none-eabi/lib/thumb/v7e-m+fp/hard/libc_nano.a(lib_a-nano-mallocr.o)
_sbss                                             build/stm32l476_startup.o
_sdata                                            build/stm32l476_startup.o
_sidata                                           build/stm32l476_startup.o
_siprintf_r                                       /home/maxime/Bureau/IMERIR-2019/gcc-arm-none-eabi-9-2019-q4-major/bin/../lib/gcc/arm-none-eabi/9.2.1/../../../../arm-none-eabi/lib/thumb/v7e-m+fp/hard/libc_nano.a(lib_a-sprintf.o)
_sprintf_r                                        /home/maxime/Bureau/IMERIR-2019/gcc-arm-none-eabi-9-2019-q4-major/bin/../lib/gcc/arm-none-eabi/9.2.1/../../../../arm-none-eabi/lib/thumb/v7e-m+fp/hard/libc_nano.a(lib_a-sprintf.o)
_start                                            /home/maxime/Bureau/IMERIR-2019/gcc-arm-none-eabi-9-2019-q4-major/bin/../lib/gcc/arm-none-eabi/9.2.1/../../../../arm-none-eabi/lib/thumb/v7e-m+fp/hard/crt0.o
_svfiprintf_r                                     /home/maxime/Bureau/IMERIR-2019/gcc-arm-none-eabi-9-2019-q4-major/bin/../lib/gcc/arm-none-eabi/9.2.1/../../../../arm-none-eabi/lib/thumb/v7e-m+fp/hard/libc_nano.a(lib_a-nano-svfprintf.o)
_svfprintf_r                                      /home/maxime/Bureau/IMERIR-2019/gcc-arm-none-eabi-9-2019-q4-major/bin/../lib/gcc/arm-none-eabi/9.2.1/../../../../arm-none-eabi/lib/thumb/v7e-m+fp/hard/libc_nano.a(lib_a-nano-svfprintf.o)
                                                  /home/maxime/Bureau/IMERIR-2019/gcc-arm-none-eabi-9-2019-q4-major/bin/../lib/gcc/arm-none-eabi/9.2.1/../../../../arm-none-eabi/lib/thumb/v7e-m+fp/hard/libc_nano.a(lib_a-sprintf.o)
atexit                                            /home/maxime/Bureau/IMERIR-2019/gcc-arm-none-eabi-9-2019-q4-major/bin/../lib/gcc/arm-none-eabi/9.2.1/../../../../arm-none-eabi/lib/thumb/v7e-m+fp/hard/crt0.o
cleanup_glue                                      /home/maxime/Bureau/IMERIR-2019/gcc-arm-none-eabi-9-2019-q4-major/bin/../lib/gcc/arm-none-eabi/9.2.1/../../../../arm-none-eabi/lib/thumb/v7e-m+fp/hard/libc_nano.a(lib_a-reent.o)
end                                               /home/maxime/Bureau/IMERIR-2019/gcc-arm-none-eabi-9-2019-q4-major/bin/../lib/gcc/arm-none-eabi/9.2.1/../../../../arm-none-eabi/lib/thumb/v7e-m+fp/hard/libnosys.a(sbrk.o)
errno                                             /home/maxime/Bureau/IMERIR-2019/gcc-arm-none-eabi-9-2019-q4-major/bin/../lib/gcc/arm-none-eabi/9.2.1/../../../../arm-none-eabi/lib/thumb/v7e-m+fp/hard/libc_nano.a(lib_a-reent.o)
                                                  /home/maxime/Bureau/IMERIR-2019/gcc-arm-none-eabi-9-2019-q4-major/bin/../lib/gcc/arm-none-eabi/9.2.1/../../../../arm-none-eabi/lib/thumb/v7e-m+fp/hard/libc_nano.a(lib_a-sbrkr.o)
example_main_lsm6dso                              ./build/read_data_simple.o
exit                                              /home/maxime/Bureau/IMERIR-2019/gcc-arm-none-eabi-9-2019-q4-major/bin/../lib/gcc/arm-none-eabi/9.2.1/../../../../arm-none-eabi/lib/thumb/v7e-m+fp/hard/libc_nano.a(lib_a-exit.o)
                                                  /home/maxime/Bureau/IMERIR-2019/gcc-arm-none-eabi-9-2019-q4-major/bin/../lib/gcc/arm-none-eabi/9.2.1/../../../../arm-none-eabi/lib/thumb/v7e-m+fp/hard/crt0.o
g_pfnVectors                                      build/stm32l476_startup.o
hardware_init_hook                                /home/maxime/Bureau/IMERIR-2019/gcc-arm-none-eabi-9-2019-q4-major/bin/../lib/gcc/arm-none-eabi/9.2.1/../../../../arm-none-eabi/lib/thumb/v7e-m+fp/hard/crt0.o
hi2c1                                             ./build/main.o
                                                  ./build/read_data_simple.o
huart2                                            ./build/main.o
                                                  ./build/read_data_simple.o
lsm6dso_4d_mode_get                               ./build/lsm6dso_reg.o
lsm6dso_4d_mode_set                               ./build/lsm6dso_reg.o
lsm6dso_6d_threshold_get                          ./build/lsm6dso_reg.o
lsm6dso_6d_threshold_set                          ./build/lsm6dso_reg.o
lsm6dso_acceleration_raw_get                      ./build/lsm6dso_reg.o
                                                  ./build/read_data_simple.o
lsm6dso_act_mode_get                              ./build/lsm6dso_reg.o
lsm6dso_act_mode_set                              ./build/lsm6dso_reg.o
lsm6dso_act_pin_notification_get                  ./build/lsm6dso_reg.o
lsm6dso_act_pin_notification_set                  ./build/lsm6dso_reg.o
lsm6dso_act_sleep_dur_get                         ./build/lsm6dso_reg.o
lsm6dso_act_sleep_dur_set                         ./build/lsm6dso_reg.o
lsm6dso_all_on_int1_get                           ./build/lsm6dso_reg.o
lsm6dso_all_on_int1_set                           ./build/lsm6dso_reg.o
lsm6dso_all_sources_get                           ./build/lsm6dso_reg.o
lsm6dso_angular_rate_raw_get                      ./build/lsm6dso_reg.o
                                                  ./build/read_data_simple.o
lsm6dso_auto_increment_get                        ./build/lsm6dso_reg.o
lsm6dso_auto_increment_set                        ./build/lsm6dso_reg.o
lsm6dso_aux_den_mode_get                          ./build/lsm6dso_reg.o
lsm6dso_aux_den_mode_set                          ./build/lsm6dso_reg.o
lsm6dso_aux_den_polarity_get                      ./build/lsm6dso_reg.o
lsm6dso_aux_den_polarity_set                      ./build/lsm6dso_reg.o
lsm6dso_aux_drdy_on_int2_get                      ./build/lsm6dso_reg.o
lsm6dso_aux_drdy_on_int2_set                      ./build/lsm6dso_reg.o
lsm6dso_aux_gy_clamp_get                          ./build/lsm6dso_reg.o
lsm6dso_aux_gy_clamp_set                          ./build/lsm6dso_reg.o
lsm6dso_aux_gy_flag_data_ready_get                ./build/lsm6dso_reg.o
lsm6dso_aux_gy_flag_settling_get                  ./build/lsm6dso_reg.o
lsm6dso_aux_gy_full_scale_get                     ./build/lsm6dso_reg.o
lsm6dso_aux_gy_full_scale_set                     ./build/lsm6dso_reg.o
lsm6dso_aux_gy_hp_bandwidth_get                   ./build/lsm6dso_reg.o
lsm6dso_aux_gy_hp_bandwidth_set                   ./build/lsm6dso_reg.o
lsm6dso_aux_gy_lp1_bandwidth_get                  ./build/lsm6dso_reg.o
lsm6dso_aux_gy_lp1_bandwidth_set                  ./build/lsm6dso_reg.o
lsm6dso_aux_gy_self_test_get                      ./build/lsm6dso_reg.o
lsm6dso_aux_gy_self_test_set                      ./build/lsm6dso_reg.o
lsm6dso_aux_mode_get                              ./build/lsm6dso_reg.o
lsm6dso_aux_mode_set                              ./build/lsm6dso_reg.o
lsm6dso_aux_pw_on_ctrl_get                        ./build/lsm6dso_reg.o
lsm6dso_aux_pw_on_ctrl_set                        ./build/lsm6dso_reg.o
lsm6dso_aux_sdo_ocs_mode_get                      ./build/lsm6dso_reg.o
lsm6dso_aux_sdo_ocs_mode_set                      ./build/lsm6dso_reg.o
lsm6dso_aux_spi_mode_get                          ./build/lsm6dso_reg.o
lsm6dso_aux_spi_mode_set                          ./build/lsm6dso_reg.o
lsm6dso_aux_status_reg_get                        ./build/lsm6dso_reg.o
lsm6dso_aux_xl_bandwidth_get                      ./build/lsm6dso_reg.o
lsm6dso_aux_xl_bandwidth_set                      ./build/lsm6dso_reg.o
lsm6dso_aux_xl_flag_data_ready_get                ./build/lsm6dso_reg.o
lsm6dso_aux_xl_fs_mode_get                        ./build/lsm6dso_reg.o
lsm6dso_aux_xl_fs_mode_set                        ./build/lsm6dso_reg.o
lsm6dso_aux_xl_full_scale_get                     ./build/lsm6dso_reg.o
lsm6dso_aux_xl_full_scale_set                     ./build/lsm6dso_reg.o
lsm6dso_aux_xl_self_test_get                      ./build/lsm6dso_reg.o
lsm6dso_aux_xl_self_test_set                      ./build/lsm6dso_reg.o
lsm6dso_batch_counter_threshold_get               ./build/lsm6dso_reg.o
lsm6dso_batch_counter_threshold_set               ./build/lsm6dso_reg.o
lsm6dso_block_data_update_get                     ./build/lsm6dso_reg.o
lsm6dso_block_data_update_set                     ./build/lsm6dso_reg.o
                                                  ./build/read_data_simple.o
lsm6dso_boot_get                                  ./build/lsm6dso_reg.o
lsm6dso_boot_set                                  ./build/lsm6dso_reg.o
lsm6dso_compression_algo_get                      ./build/lsm6dso_reg.o
lsm6dso_compression_algo_init_get                 ./build/lsm6dso_reg.o
lsm6dso_compression_algo_init_set                 ./build/lsm6dso_reg.o
lsm6dso_compression_algo_real_time_get            ./build/lsm6dso_reg.o
lsm6dso_compression_algo_real_time_set            ./build/lsm6dso_reg.o
lsm6dso_compression_algo_set                      ./build/lsm6dso_reg.o
lsm6dso_data_ready_mode_get                       ./build/lsm6dso_reg.o
lsm6dso_data_ready_mode_set                       ./build/lsm6dso_reg.o
lsm6dso_den_enable_get                            ./build/lsm6dso_reg.o
lsm6dso_den_enable_set                            ./build/lsm6dso_reg.o
lsm6dso_den_mark_axis_x_get                       ./build/lsm6dso_reg.o
lsm6dso_den_mark_axis_x_set                       ./build/lsm6dso_reg.o
lsm6dso_den_mark_axis_y_get                       ./build/lsm6dso_reg.o
lsm6dso_den_mark_axis_y_set                       ./build/lsm6dso_reg.o
lsm6dso_den_mark_axis_z_get                       ./build/lsm6dso_reg.o
lsm6dso_den_mark_axis_z_set                       ./build/lsm6dso_reg.o
lsm6dso_den_mode_get                              ./build/lsm6dso_reg.o
lsm6dso_den_mode_set                              ./build/lsm6dso_reg.o
lsm6dso_den_polarity_get                          ./build/lsm6dso_reg.o
lsm6dso_den_polarity_set                          ./build/lsm6dso_reg.o
lsm6dso_device_id_get                             ./build/lsm6dso_reg.o
                                                  ./build/read_data_simple.o
lsm6dso_emb_fsm_en_get                            ./build/lsm6dso_reg.o
lsm6dso_emb_fsm_en_set                            ./build/lsm6dso_reg.o
lsm6dso_ff_dur_get                                ./build/lsm6dso_reg.o
lsm6dso_ff_dur_set                                ./build/lsm6dso_reg.o
lsm6dso_ff_threshold_get                          ./build/lsm6dso_reg.o
lsm6dso_ff_threshold_set                          ./build/lsm6dso_reg.o
lsm6dso_fifo_cnt_event_batch_get                  ./build/lsm6dso_reg.o
lsm6dso_fifo_cnt_event_batch_set                  ./build/lsm6dso_reg.o
lsm6dso_fifo_data_level_get                       ./build/lsm6dso_reg.o
lsm6dso_fifo_full_flag_get                        ./build/lsm6dso_reg.o
lsm6dso_fifo_gy_batch_get                         ./build/lsm6dso_reg.o
lsm6dso_fifo_gy_batch_set                         ./build/lsm6dso_reg.o
lsm6dso_fifo_mode_get                             ./build/lsm6dso_reg.o
lsm6dso_fifo_mode_set                             ./build/lsm6dso_reg.o
lsm6dso_fifo_out_raw_get                          ./build/lsm6dso_reg.o
lsm6dso_fifo_ovr_flag_get                         ./build/lsm6dso_reg.o
lsm6dso_fifo_pedo_batch_get                       ./build/lsm6dso_reg.o
lsm6dso_fifo_pedo_batch_set                       ./build/lsm6dso_reg.o
lsm6dso_fifo_sensor_tag_get                       ./build/lsm6dso_reg.o
lsm6dso_fifo_status_get                           ./build/lsm6dso_reg.o
lsm6dso_fifo_stop_on_wtm_get                      ./build/lsm6dso_reg.o
lsm6dso_fifo_stop_on_wtm_set                      ./build/lsm6dso_reg.o
lsm6dso_fifo_temp_batch_get                       ./build/lsm6dso_reg.o
lsm6dso_fifo_temp_batch_set                       ./build/lsm6dso_reg.o
lsm6dso_fifo_timestamp_decimation_get             ./build/lsm6dso_reg.o
lsm6dso_fifo_timestamp_decimation_set             ./build/lsm6dso_reg.o
lsm6dso_fifo_virtual_sens_odr_chg_get             ./build/lsm6dso_reg.o
lsm6dso_fifo_virtual_sens_odr_chg_set             ./build/lsm6dso_reg.o
lsm6dso_fifo_watermark_get                        ./build/lsm6dso_reg.o
lsm6dso_fifo_watermark_set                        ./build/lsm6dso_reg.o
lsm6dso_fifo_wtm_flag_get                         ./build/lsm6dso_reg.o
lsm6dso_fifo_xl_batch_get                         ./build/lsm6dso_reg.o
lsm6dso_fifo_xl_batch_set                         ./build/lsm6dso_reg.o
lsm6dso_filter_settling_mask_get                  ./build/lsm6dso_reg.o
lsm6dso_filter_settling_mask_set                  ./build/lsm6dso_reg.o
lsm6dso_from_fs1000_to_mdps                       ./build/lsm6dso_reg.o
lsm6dso_from_fs125_to_mdps                        ./build/lsm6dso_reg.o
lsm6dso_from_fs16_to_mg                           ./build/lsm6dso_reg.o
lsm6dso_from_fs2000_to_mdps                       ./build/lsm6dso_reg.o
                                                  ./build/read_data_simple.o
lsm6dso_from_fs250_to_mdps                        ./build/lsm6dso_reg.o
lsm6dso_from_fs2_to_mg                            ./build/lsm6dso_reg.o
                                                  ./build/read_data_simple.o
lsm6dso_from_fs4_to_mg                            ./build/lsm6dso_reg.o
lsm6dso_from_fs500_to_mdps                        ./build/lsm6dso_reg.o
lsm6dso_from_fs8_to_mg                            ./build/lsm6dso_reg.o
lsm6dso_from_lsb_to_celsius                       ./build/lsm6dso_reg.o
                                                  ./build/read_data_simple.o
lsm6dso_from_lsb_to_nsec                          ./build/lsm6dso_reg.o
lsm6dso_fsm_data_rate_get                         ./build/lsm6dso_reg.o
lsm6dso_fsm_data_rate_set                         ./build/lsm6dso_reg.o
lsm6dso_fsm_enable_get                            ./build/lsm6dso_reg.o
lsm6dso_fsm_enable_set                            ./build/lsm6dso_reg.o
lsm6dso_fsm_init_get                              ./build/lsm6dso_reg.o
lsm6dso_fsm_init_set                              ./build/lsm6dso_reg.o
lsm6dso_fsm_number_of_programs_get                ./build/lsm6dso_reg.o
lsm6dso_fsm_number_of_programs_set                ./build/lsm6dso_reg.o
lsm6dso_fsm_out_get                               ./build/lsm6dso_reg.o
lsm6dso_fsm_start_address_get                     ./build/lsm6dso_reg.o
lsm6dso_fsm_start_address_set                     ./build/lsm6dso_reg.o
lsm6dso_gy_data_rate_get                          ./build/lsm6dso_reg.o
lsm6dso_gy_data_rate_set                          ./build/lsm6dso_reg.o
                                                  ./build/read_data_simple.o
lsm6dso_gy_filter_lp1_get                         ./build/lsm6dso_reg.o
lsm6dso_gy_filter_lp1_set                         ./build/lsm6dso_reg.o
lsm6dso_gy_flag_data_ready_get                    ./build/lsm6dso_reg.o
                                                  ./build/read_data_simple.o
lsm6dso_gy_full_scale_get                         ./build/lsm6dso_reg.o
lsm6dso_gy_full_scale_set                         ./build/lsm6dso_reg.o
                                                  ./build/read_data_simple.o
lsm6dso_gy_hp_path_internal_get                   ./build/lsm6dso_reg.o
lsm6dso_gy_hp_path_internal_set                   ./build/lsm6dso_reg.o
lsm6dso_gy_lp1_bandwidth_get                      ./build/lsm6dso_reg.o
lsm6dso_gy_lp1_bandwidth_set                      ./build/lsm6dso_reg.o
lsm6dso_gy_power_mode_get                         ./build/lsm6dso_reg.o
lsm6dso_gy_power_mode_set                         ./build/lsm6dso_reg.o
lsm6dso_gy_self_test_get                          ./build/lsm6dso_reg.o
lsm6dso_gy_self_test_set                          ./build/lsm6dso_reg.o
lsm6dso_gy_sleep_mode_get                         ./build/lsm6dso_reg.o
lsm6dso_gy_sleep_mode_set                         ./build/lsm6dso_reg.o
lsm6dso_i2c_interface_get                         ./build/lsm6dso_reg.o
lsm6dso_i2c_interface_set                         ./build/lsm6dso_reg.o
lsm6dso_i3c_disable_get                           ./build/lsm6dso_reg.o
lsm6dso_i3c_disable_set                           ./build/lsm6dso_reg.o
                                                  ./build/read_data_simple.o
lsm6dso_int1_mode_get                             ./build/lsm6dso_reg.o
lsm6dso_int1_mode_set                             ./build/lsm6dso_reg.o
lsm6dso_int_notification_get                      ./build/lsm6dso_reg.o
lsm6dso_int_notification_set                      ./build/lsm6dso_reg.o
lsm6dso_ln_pg_read_byte                           ./build/lsm6dso_reg.o
lsm6dso_ln_pg_write                               ./build/lsm6dso_reg.o
lsm6dso_ln_pg_write_byte                          ./build/lsm6dso_reg.o
lsm6dso_long_clr_get                              ./build/lsm6dso_reg.o
lsm6dso_long_clr_set                              ./build/lsm6dso_reg.o
lsm6dso_long_cnt_flag_data_ready_get              ./build/lsm6dso_reg.o
lsm6dso_long_cnt_get                              ./build/lsm6dso_reg.o
lsm6dso_long_cnt_int_value_get                    ./build/lsm6dso_reg.o
lsm6dso_long_cnt_int_value_set                    ./build/lsm6dso_reg.o
lsm6dso_long_cnt_set                              ./build/lsm6dso_reg.o
lsm6dso_mag_offset_get                            ./build/lsm6dso_reg.o
lsm6dso_mag_offset_set                            ./build/lsm6dso_reg.o
lsm6dso_mag_sensitivity_get                       ./build/lsm6dso_reg.o
lsm6dso_mag_sensitivity_set                       ./build/lsm6dso_reg.o
lsm6dso_mag_soft_iron_get                         ./build/lsm6dso_reg.o
lsm6dso_mag_soft_iron_set                         ./build/lsm6dso_reg.o
lsm6dso_mag_x_orient_get                          ./build/lsm6dso_reg.o
lsm6dso_mag_x_orient_set                          ./build/lsm6dso_reg.o
lsm6dso_mag_y_orient_get                          ./build/lsm6dso_reg.o
lsm6dso_mag_y_orient_set                          ./build/lsm6dso_reg.o
lsm6dso_mag_z_orient_get                          ./build/lsm6dso_reg.o
lsm6dso_mag_z_orient_set                          ./build/lsm6dso_reg.o
lsm6dso_mem_bank_get                              ./build/lsm6dso_reg.o
lsm6dso_mem_bank_set                              ./build/lsm6dso_reg.o
lsm6dso_motion_flag_data_ready_get                ./build/lsm6dso_reg.o
lsm6dso_motion_sens_get                           ./build/lsm6dso_reg.o
lsm6dso_motion_sens_set                           ./build/lsm6dso_reg.o
lsm6dso_number_of_steps_get                       ./build/lsm6dso_reg.o
lsm6dso_odr_cal_reg_get                           ./build/lsm6dso_reg.o
lsm6dso_odr_cal_reg_set                           ./build/lsm6dso_reg.o
lsm6dso_pedo_debounce_steps_get                   ./build/lsm6dso_reg.o
lsm6dso_pedo_debounce_steps_set                   ./build/lsm6dso_reg.o
lsm6dso_pedo_int_mode_get                         ./build/lsm6dso_reg.o
lsm6dso_pedo_int_mode_set                         ./build/lsm6dso_reg.o
lsm6dso_pedo_sens_get                             ./build/lsm6dso_reg.o
lsm6dso_pedo_sens_set                             ./build/lsm6dso_reg.o
lsm6dso_pedo_step_detect_get                      ./build/lsm6dso_reg.o
lsm6dso_pedo_steps_period_get                     ./build/lsm6dso_reg.o
lsm6dso_pedo_steps_period_set                     ./build/lsm6dso_reg.o
lsm6dso_pin_int1_route_get                        ./build/lsm6dso_reg.o
lsm6dso_pin_int1_route_set                        ./build/lsm6dso_reg.o
lsm6dso_pin_int2_route_get                        ./build/lsm6dso_reg.o
lsm6dso_pin_int2_route_set                        ./build/lsm6dso_reg.o
lsm6dso_pin_mode_get                              ./build/lsm6dso_reg.o
lsm6dso_pin_mode_set                              ./build/lsm6dso_reg.o
lsm6dso_pin_polarity_get                          ./build/lsm6dso_reg.o
lsm6dso_pin_polarity_set                          ./build/lsm6dso_reg.o
lsm6dso_read_reg                                  ./build/lsm6dso_reg.o
lsm6dso_reset_get                                 ./build/lsm6dso_reg.o
                                                  ./build/read_data_simple.o
lsm6dso_reset_set                                 ./build/lsm6dso_reg.o
                                                  ./build/read_data_simple.o
lsm6dso_rounding_mode_get                         ./build/lsm6dso_reg.o
lsm6dso_rounding_mode_set                         ./build/lsm6dso_reg.o
lsm6dso_rst_batch_counter_get                     ./build/lsm6dso_reg.o
lsm6dso_rst_batch_counter_set                     ./build/lsm6dso_reg.o
lsm6dso_sdo_sa0_mode_get                          ./build/lsm6dso_reg.o
lsm6dso_sdo_sa0_mode_set                          ./build/lsm6dso_reg.o
lsm6dso_sh_batch_slave_0_get                      ./build/lsm6dso_reg.o
lsm6dso_sh_batch_slave_0_set                      ./build/lsm6dso_reg.o
lsm6dso_sh_batch_slave_1_get                      ./build/lsm6dso_reg.o
lsm6dso_sh_batch_slave_1_set                      ./build/lsm6dso_reg.o
lsm6dso_sh_batch_slave_2_get                      ./build/lsm6dso_reg.o
lsm6dso_sh_batch_slave_2_set                      ./build/lsm6dso_reg.o
lsm6dso_sh_batch_slave_3_get                      ./build/lsm6dso_reg.o
lsm6dso_sh_batch_slave_3_set                      ./build/lsm6dso_reg.o
lsm6dso_sh_cfg_write                              ./build/lsm6dso_reg.o
lsm6dso_sh_data_rate_get                          ./build/lsm6dso_reg.o
lsm6dso_sh_data_rate_set                          ./build/lsm6dso_reg.o
lsm6dso_sh_master_get                             ./build/lsm6dso_reg.o
lsm6dso_sh_master_set                             ./build/lsm6dso_reg.o
lsm6dso_sh_pass_through_get                       ./build/lsm6dso_reg.o
lsm6dso_sh_pass_through_set                       ./build/lsm6dso_reg.o
lsm6dso_sh_pin_mode_get                           ./build/lsm6dso_reg.o
lsm6dso_sh_pin_mode_set                           ./build/lsm6dso_reg.o
lsm6dso_sh_read_data_raw_get                      ./build/lsm6dso_reg.o
lsm6dso_sh_reset_get                              ./build/lsm6dso_reg.o
lsm6dso_sh_reset_set                              ./build/lsm6dso_reg.o
lsm6dso_sh_slave_connected_get                    ./build/lsm6dso_reg.o
lsm6dso_sh_slave_connected_set                    ./build/lsm6dso_reg.o
lsm6dso_sh_slv0_cfg_read                          ./build/lsm6dso_reg.o
lsm6dso_sh_slv1_cfg_read                          ./build/lsm6dso_reg.o
lsm6dso_sh_slv2_cfg_read                          ./build/lsm6dso_reg.o
lsm6dso_sh_slv3_cfg_read                          ./build/lsm6dso_reg.o
lsm6dso_sh_status_get                             ./build/lsm6dso_reg.o
lsm6dso_sh_syncro_mode_get                        ./build/lsm6dso_reg.o
lsm6dso_sh_syncro_mode_set                        ./build/lsm6dso_reg.o
lsm6dso_sh_write_mode_get                         ./build/lsm6dso_reg.o
lsm6dso_sh_write_mode_set                         ./build/lsm6dso_reg.o
lsm6dso_spi_mode_get                              ./build/lsm6dso_reg.o
lsm6dso_spi_mode_set                              ./build/lsm6dso_reg.o
lsm6dso_status_reg_get                            ./build/lsm6dso_reg.o
lsm6dso_steps_reset                               ./build/lsm6dso_reg.o
lsm6dso_tap_axis_priority_get                     ./build/lsm6dso_reg.o
lsm6dso_tap_axis_priority_set                     ./build/lsm6dso_reg.o
lsm6dso_tap_detection_on_x_get                    ./build/lsm6dso_reg.o
lsm6dso_tap_detection_on_x_set                    ./build/lsm6dso_reg.o
lsm6dso_tap_detection_on_y_get                    ./build/lsm6dso_reg.o
lsm6dso_tap_detection_on_y_set                    ./build/lsm6dso_reg.o
lsm6dso_tap_detection_on_z_get                    ./build/lsm6dso_reg.o
lsm6dso_tap_detection_on_z_set                    ./build/lsm6dso_reg.o
lsm6dso_tap_dur_get                               ./build/lsm6dso_reg.o
lsm6dso_tap_dur_set                               ./build/lsm6dso_reg.o
lsm6dso_tap_mode_get                              ./build/lsm6dso_reg.o
lsm6dso_tap_mode_set                              ./build/lsm6dso_reg.o
lsm6dso_tap_quiet_get                             ./build/lsm6dso_reg.o
lsm6dso_tap_quiet_set                             ./build/lsm6dso_reg.o
lsm6dso_tap_shock_get                             ./build/lsm6dso_reg.o
lsm6dso_tap_shock_set                             ./build/lsm6dso_reg.o
lsm6dso_tap_threshold_x_get                       ./build/lsm6dso_reg.o
lsm6dso_tap_threshold_x_set                       ./build/lsm6dso_reg.o
lsm6dso_tap_threshold_y_get                       ./build/lsm6dso_reg.o
lsm6dso_tap_threshold_y_set                       ./build/lsm6dso_reg.o
lsm6dso_tap_threshold_z_get                       ./build/lsm6dso_reg.o
lsm6dso_tap_threshold_z_set                       ./build/lsm6dso_reg.o
lsm6dso_temp_flag_data_ready_get                  ./build/lsm6dso_reg.o
                                                  ./build/read_data_simple.o
lsm6dso_temperature_raw_get                       ./build/lsm6dso_reg.o
                                                  ./build/read_data_simple.o
lsm6dso_tilt_flag_data_ready_get                  ./build/lsm6dso_reg.o
lsm6dso_tilt_sens_get                             ./build/lsm6dso_reg.o
lsm6dso_tilt_sens_set                             ./build/lsm6dso_reg.o
lsm6dso_timestamp_get                             ./build/lsm6dso_reg.o
lsm6dso_timestamp_raw_get                         ./build/lsm6dso_reg.o
lsm6dso_timestamp_rst                             ./build/lsm6dso_reg.o
lsm6dso_timestamp_set                             ./build/lsm6dso_reg.o
lsm6dso_wkup_dur_get                              ./build/lsm6dso_reg.o
lsm6dso_wkup_dur_set                              ./build/lsm6dso_reg.o
lsm6dso_wkup_threshold_get                        ./build/lsm6dso_reg.o
lsm6dso_wkup_threshold_set                        ./build/lsm6dso_reg.o
lsm6dso_wkup_ths_weight_get                       ./build/lsm6dso_reg.o
lsm6dso_wkup_ths_weight_set                       ./build/lsm6dso_reg.o
lsm6dso_write_reg                                 ./build/lsm6dso_reg.o
lsm6dso_xl_data_rate_get                          ./build/lsm6dso_reg.o
lsm6dso_xl_data_rate_set                          ./build/lsm6dso_reg.o
                                                  ./build/read_data_simple.o
lsm6dso_xl_fast_settling_get                      ./build/lsm6dso_reg.o
lsm6dso_xl_fast_settling_set                      ./build/lsm6dso_reg.o
lsm6dso_xl_filter_lp2_get                         ./build/lsm6dso_reg.o
lsm6dso_xl_filter_lp2_set                         ./build/lsm6dso_reg.o
                                                  ./build/read_data_simple.o
lsm6dso_xl_flag_data_ready_get                    ./build/lsm6dso_reg.o
                                                  ./build/read_data_simple.o
lsm6dso_xl_full_scale_get                         ./build/lsm6dso_reg.o
lsm6dso_xl_full_scale_set                         ./build/lsm6dso_reg.o
                                                  ./build/read_data_simple.o
lsm6dso_xl_hp_path_internal_get                   ./build/lsm6dso_reg.o
lsm6dso_xl_hp_path_internal_set                   ./build/lsm6dso_reg.o
lsm6dso_xl_hp_path_on_out_get                     ./build/lsm6dso_reg.o
lsm6dso_xl_hp_path_on_out_set                     ./build/lsm6dso_reg.o
                                                  ./build/read_data_simple.o
lsm6dso_xl_lp2_on_6d_get                          ./build/lsm6dso_reg.o
lsm6dso_xl_lp2_on_6d_set                          ./build/lsm6dso_reg.o
lsm6dso_xl_offset_weight_get                      ./build/lsm6dso_reg.o
lsm6dso_xl_offset_weight_set                      ./build/lsm6dso_reg.o
lsm6dso_xl_power_mode_get                         ./build/lsm6dso_reg.o
lsm6dso_xl_power_mode_set                         ./build/lsm6dso_reg.o
lsm6dso_xl_self_test_get                          ./build/lsm6dso_reg.o
lsm6dso_xl_self_test_set                          ./build/lsm6dso_reg.o
lsm6dso_xl_usr_offset_get                         ./build/lsm6dso_reg.o
lsm6dso_xl_usr_offset_on_wkup_get                 ./build/lsm6dso_reg.o
lsm6dso_xl_usr_offset_on_wkup_set                 ./build/lsm6dso_reg.o
lsm6dso_xl_usr_offset_set                         ./build/lsm6dso_reg.o
lsm6dso_xl_usr_offset_x_get                       ./build/lsm6dso_reg.o
lsm6dso_xl_usr_offset_x_set                       ./build/lsm6dso_reg.o
lsm6dso_xl_usr_offset_y_get                       ./build/lsm6dso_reg.o
lsm6dso_xl_usr_offset_y_set                       ./build/lsm6dso_reg.o
lsm6dso_xl_usr_offset_z_get                       ./build/lsm6dso_reg.o
lsm6dso_xl_usr_offset_z_set                       ./build/lsm6dso_reg.o
main                                              ./build/main.o
                                                  build/stm32l476_startup.o
                                                  /home/maxime/Bureau/IMERIR-2019/gcc-arm-none-eabi-9-2019-q4-major/bin/../lib/gcc/arm-none-eabi/9.2.1/../../../../arm-none-eabi/lib/thumb/v7e-m+fp/hard/crt0.o
memchr                                            /home/maxime/Bureau/IMERIR-2019/gcc-arm-none-eabi-9-2019-q4-major/bin/../lib/gcc/arm-none-eabi/9.2.1/../../../../arm-none-eabi/lib/thumb/v7e-m+fp/hard/libc_nano.a(lib_a-memchr.o)
                                                  /home/maxime/Bureau/IMERIR-2019/gcc-arm-none-eabi-9-2019-q4-major/bin/../lib/gcc/arm-none-eabi/9.2.1/../../../../arm-none-eabi/lib/thumb/v7e-m+fp/hard/libc_nano.a(lib_a-nano-vfprintf_i.o)
                                                  /home/maxime/Bureau/IMERIR-2019/gcc-arm-none-eabi-9-2019-q4-major/bin/../lib/gcc/arm-none-eabi/9.2.1/../../../../arm-none-eabi/lib/thumb/v7e-m+fp/hard/libc_nano.a(lib_a-nano-svfprintf.o)
memcpy                                            /home/maxime/Bureau/IMERIR-2019/gcc-arm-none-eabi-9-2019-q4-major/bin/../lib/gcc/arm-none-eabi/9.2.1/../../../../arm-none-eabi/lib/thumb/v7e-m+fp/hard/libc_nano.a(lib_a-memcpy-stub.o)
                                                  /home/maxime/Bureau/IMERIR-2019/gcc-arm-none-eabi-9-2019-q4-major/bin/../lib/gcc/arm-none-eabi/9.2.1/../../../../arm-none-eabi/lib/thumb/v7e-m+fp/hard/libc_nano.a(lib_a-nano-reallocr.o)
                                                  /home/maxime/Bureau/IMERIR-2019/gcc-arm-none-eabi-9-2019-q4-major/bin/../lib/gcc/arm-none-eabi/9.2.1/../../../../arm-none-eabi/lib/thumb/v7e-m+fp/hard/libc_nano.a(lib_a-nano-svfprintf.o)
memmove                                           /home/maxime/Bureau/IMERIR-2019/gcc-arm-none-eabi-9-2019-q4-major/bin/../lib/gcc/arm-none-eabi/9.2.1/../../../../arm-none-eabi/lib/thumb/v7e-m+fp/hard/libc_nano.a(lib_a-memmove.o)
                                                  /home/maxime/Bureau/IMERIR-2019/gcc-arm-none-eabi-9-2019-q4-major/bin/../lib/gcc/arm-none-eabi/9.2.1/../../../../arm-none-eabi/lib/thumb/v7e-m+fp/hard/libc_nano.a(lib_a-nano-svfprintf.o)
memset                                            /home/maxime/Bureau/IMERIR-2019/gcc-arm-none-eabi-9-2019-q4-major/bin/../lib/gcc/arm-none-eabi/9.2.1/../../../../arm-none-eabi/lib/thumb/v7e-m+fp/hard/libc_nano.a(lib_a-memset.o)
                                                  ./build/stm32l4xx_nucleo.o
                                                  ./build/main.o
                                                  /home/maxime/Bureau/IMERIR-2019/gcc-arm-none-eabi-9-2019-q4-major/bin/../lib/gcc/arm-none-eabi/9.2.1/../../../../arm-none-eabi/lib/thumb/v7e-m+fp/hard/crt0.o
siprintf                                          /home/maxime/Bureau/IMERIR-2019/gcc-arm-none-eabi-9-2019-q4-major/bin/../lib/gcc/arm-none-eabi/9.2.1/../../../../arm-none-eabi/lib/thumb/v7e-m+fp/hard/libc_nano.a(lib_a-sprintf.o)
software_init_hook                                /home/maxime/Bureau/IMERIR-2019/gcc-arm-none-eabi-9-2019-q4-major/bin/../lib/gcc/arm-none-eabi/9.2.1/../../../../arm-none-eabi/lib/thumb/v7e-m+fp/hard/crt0.o
sprintf                                           /home/maxime/Bureau/IMERIR-2019/gcc-arm-none-eabi-9-2019-q4-major/bin/../lib/gcc/arm-none-eabi/9.2.1/../../../../arm-none-eabi/lib/thumb/v7e-m+fp/hard/libc_nano.a(lib_a-sprintf.o)
                                                  ./build/read_data_simple.o
strlen                                            /home/maxime/Bureau/IMERIR-2019/gcc-arm-none-eabi-9-2019-q4-major/bin/../lib/gcc/arm-none-eabi/9.2.1/../../../../arm-none-eabi/lib/thumb/v7e-m+fp/hard/libc_nano.a(lib_a-strlen.o)
                                                  ./build/read_data_simple.o
uwTick                                            ./build/stm32l4xx_hal.o
uwTickFreq                                        ./build/stm32l4xx_hal.o
uwTickPrio                                        ./build/stm32l4xx_hal.o
                                                  ./build/stm32l4xx_hal_rcc.o
